(lp0
F0.5136223041396552
aF0.11152069827549681
aF1.5700605906529383
aF0.02381255031566459
aF0.13363840515232406
aF1.8003474429049617
aF0.8213635015465446
aF0.033134189229269945
aF0.026566670903775264
aF0.0008050506334477353
aF0.2714291767297996
aF2.7487818312783356
aF0.582475318842422
aF0.015253590949536036
aF8.474217194186687e-05
aF0.02182110927503072
aF0.06042116859455108
aF1.0715223931189357
aF0.4482437184865048
aF0.9921189780094064
aF0.026439557645862463
aF0.013940087284437101
aF0.049489428414050254
aI0
aF0.44637939070378374
aF0.05991271556289988
aF0.8203889665692131
aF0.9060209313164697
aF0.255878988178467
aF0.4793864666751409
aF0.40807592898605993
aF0.2756662853268929
aF0.11817295877293335
aF0.14986653107919157
aF0.007499682216855218
aF0.080844032032541
a.