(lp0
F0.7274114774114774
aF0.25066137566137564
aF1.6007834757834758
aF0.04242979242979243
aF0.015923890923890925
aF2.1582214082214084
aF1.2387566137566137
aF0.046194546194546195
aF0.03673178673178673
aF0.0018823768823768823
aF0.27940577940577943
aF3.118996743996744
aF0.651912901912902
aF0.015974765974765975
aF5.087505087505087e-05
aF0.026404151404151404
aF0.09213471713471713
aF1.2501526251526252
aF0.512057387057387
aF1.1225579975579976
aF0.028744403744403745
aF0.0117012617012617
aF0.09091371591371591
aF0.00010175010175010175
aF0.43691493691493694
aF0.039224664224664224
aF0.7840862840862841
aF1.0891839641839642
aF0.361975986975987
aF0.4958791208791209
aF0.3668091168091168
aF0.2400793650793651
aF0.09528897028897029
aF0.10185185185185185
aF0.004782254782254782
aF0.09910459910459911
a.