(lp0
F0.4725044597843791
aF0.06809896843248274
aF1.1541921973163731
aF0.031412394322500585
aF0.013495695338555805
aF1.3512758861397658
aF0.8384394632746451
aF0.03909097960133406
aF0.016830838439463276
aF7.75614674629644e-05
aF0.23493368494531916
aF2.264174358178857
aF0.49809974404715734
aF0.0052741797874815794
aF7.75614674629644e-05
aF0.0069029706042038315
aF0.06065306755603816
aF0.9657953928488326
aF0.2882959745598387
aF0.8385945862095711
aF0.026215776002481966
aF0.00581711005972233
aF0.05863646940200109
aI0
aF0.35368029163111764
aF0.062359419840223376
aF0.7009229814628093
aF0.9353137361358876
aF0.15388195144652136
aF0.31164197626619095
aF0.31606297991157994
aF0.21973163732257814
aF0.03691925851237105
aF0.09097960133405723
aF0.0009307376095555727
aF0.09051423252927945
a.