(lp0
F0.5
aF0.10264900662251655
aF1.1721854304635762
aF0.013245033112582781
aF0.019867549668874173
aF1.3642384105960266
aF1.0
aF0.03642384105960265
aF0.013245033112582781
aF0.0033112582781456954
aF0.16887417218543047
aF2.4172185430463577
aF0.3741721854304636
aF0.023178807947019868
aI0
aF0.016556291390728478
aF0.076158940397351
aF0.9768211920529801
aF0.5596026490066225
aF0.6788079470198676
aF0.08940397350993377
aF0.006622516556291391
aF0.11920529801324503
aI0
aF0.3344370860927152
aI0
aF0.6059602649006622
aF1.1390728476821192
aF0.33774834437086093
aF0.2814569536423841
aF0.2947019867549669
aF0.152317880794702
aF0.039735099337748346
aF0.08278145695364239
aI0
aF0.056291390728476824
a.