(lp0
F0.6862302483069977
aF0.12641083521444696
aF1.693002257336343
aF0.040632054176072234
aF0.0654627539503386
aF1.8419864559819412
aF1.0
aF0.033860045146726865
aF0.029345372460496615
aI0
aF0.24604966139954854
aF2.6772009029345374
aF0.8284424379232506
aF0.029345372460496615
aF0.002257336343115124
aF0.024830699774266364
aF0.060948081264108354
aF1.2505643340857788
aF0.3724604966139955
aF0.7923250564334086
aF0.006772009029345372
aF0.002257336343115124
aF0.09255079006772009
aI0
aF0.39954853273137697
aF0.009029345372460496
aF0.6794582392776524
aF1.1670428893905191
aF0.27313769751693
aF0.40632054176072235
aF0.38148984198645597
aF0.23476297968397292
aF0.045146726862302484
aF0.11286681715575621
aI0
aF0.11286681715575621
a.