(lp0
F0.7055214723926381
aF0.1656441717791411
aF2.1104294478527605
aF0.018404907975460124
aF0.006134969325153374
aF2.147239263803681
aF1.0797546012269938
aF0.0736196319018405
aF0.006134969325153374
aI0
aF0.1901840490797546
aF3.049079754601227
aF0.9938650306748467
aI0
aI0
aF0.006134969325153374
aF0.04294478527607362
aF1.1717791411042944
aF0.5276073619631901
aF0.7668711656441718
aF0.012269938650306749
aF0.012269938650306749
aF0.11042944785276074
aI0
aF0.36809815950920244
aF0.012269938650306749
aF0.4601226993865031
aF1.6441717791411044
aF0.3496932515337423
aF0.49693251533742333
aF0.06134969325153374
aF0.08588957055214724
aF0.11042944785276074
aF0.03067484662576687
aF0.006134969325153374
aF0.11042944785276074
a.