(lp0
F1.392156862745098
aF0.3607843137254902
aF2.6470588235294117
aF0.07058823529411765
aI0
aF3.015686274509804
aF1.4823529411764707
aF0.09019607843137255
aF0.054901960784313725
aF0.00392156862745098
aF0.17254901960784313
aF4.290196078431372
aF1.2666666666666666
aF0.06666666666666667
aI0
aF0.0196078431372549
aF0.13725490196078433
aF1.3686274509803922
aF0.803921568627451
aF1.2588235294117647
aF0.0196078431372549
aF0.00392156862745098
aF0.1450980392156863
aI0
aF0.6039215686274509
aF0.00392156862745098
aF0.8392156862745098
aF1.9843137254901961
aF0.4
aF0.6705882352941176
aF0.22745098039215686
aF0.2196078431372549
aF0.10196078431372549
aF0.15294117647058825
aF0.011764705882352941
aF0.10196078431372549
a.