(lp0
F0.7282479141835518
aF0.10393325387365912
aF1.7466030989272945
aF0.047914183551847435
aF0.0133492252681764
aF2.1785458879618593
aF1.1578069129916568
aF0.03885578069129916
aF0.025029797377830752
aF0.0004767580452920143
aF0.30893921334922525
aF3.12896305125149
aF0.6839094159713945
aF0.007628128724672229
aF0.00023837902264600716
aF0.01764004767580453
aF0.08081048867699643
aF1.3792610250297974
aF0.4574493444576877
aF1.1766388557806913
aF0.022884386174016686
aF0.004767580452920143
aF0.12181168057210966
aI0
aF0.5056019070321812
aF0.0266984505363528
aF0.9087008343265792
aF1.1530393325387367
aF0.35470798569725864
aF0.5685339690107271
aF0.4302741358760429
aF0.35446960667461264
aF0.08200238379022647
aF0.08367103694874851
aF0.0054827175208581646
aF0.13015494636471991
a.