(lp0
F1.0868263473053892
aF0.11976047904191617
aF1.5868263473053892
aF0.05688622754491018
aF0.008982035928143712
aF1.937125748502994
aF1.3622754491017963
aF0.04491017964071856
aF0.023952095808383235
aF0.005988023952095809
aF0.2634730538922156
aF3.5209580838323356
aF0.6796407185628742
aI0
aI0
aF0.023952095808383235
aF0.15568862275449102
aF1.2425149700598803
aF0.6946107784431138
aF1.2754491017964071
aF0.02694610778443114
aF0.0029940119760479044
aF0.059880239520958084
aF0.0029940119760479044
aF0.562874251497006
aF0.03592814371257485
aF1.0149700598802396
aF1.3353293413173652
aF0.27245508982035926
aF0.4431137724550898
aF0.24850299401197604
aF0.25748502994011974
aF0.0718562874251497
aF0.05389221556886228
aI0
aF0.10778443113772455
a.