(lp0
F1.9595959595959596
aF0.3333333333333333
aF4.575757575757576
aF0.12121212121212122
aF0.020202020202020204
aF5.0
aF2.8585858585858586
aF0.09090909090909091
aF0.16161616161616163
aI0
aF0.3939393939393939
aF6.696969696969697
aF2.0
aI0
aI0
aF0.030303030303030304
aF0.13131313131313133
aF1.6363636363636365
aF0.7373737373737373
aF2.01010101010101
aF0.04040404040404041
aF0.020202020202020204
aF0.09090909090909091
aI0
aF0.7171717171717171
aF0.010101010101010102
aF1.1313131313131313
aF1.8585858585858586
aF0.5858585858585859
aF0.898989898989899
aF0.6464646464646465
aF0.6868686868686869
aF0.45454545454545453
aF0.09090909090909091
aI0
aF0.30303030303030304
a.