(lp0
F0.4335247349823322
aF0.08303886925795052
aF1.4949204946996466
aF0.03224381625441696
aF0.015238515901060071
aF1.6841872791519434
aF0.9688604240282686
aF0.029814487632508834
aF0.015680212014134276
aI0
aF0.1704946996466431
aF2.784673144876325
aF0.48608657243816256
aF0.005742049469964664
aI0
aF0.010159010600706713
aF0.05123674911660778
aF0.9432420494699647
aF0.36020318021201414
aF0.9293286219081273
aF0.020097173144876326
aF0.005962897526501767
aF0.07133392226148409
aI0
aF0.3549028268551237
aF0.02142226148409894
aF0.5651501766784452
aF1.181316254416961
aF0.2842314487632509
aF0.46996466431095407
aF0.26921378091872794
aF0.1612190812720848
aF0.1238957597173145
aF0.07795936395759717
aF0.0066254416961130744
aF0.06382508833922261
a.