(lp0
F0.35398230088495575
aF0.05309734513274336
aF1.0
aF0.008849557522123894
aF0.008849557522123894
aF0.6902654867256637
aF0.5398230088495575
aI0
aI0
aI0
aF0.07964601769911504
aF1.654867256637168
aF0.3805309734513274
aF0.04424778761061947
aI0
aF0.008849557522123894
aF0.05309734513274336
aF0.5221238938053098
aF0.22123893805309736
aF0.5486725663716814
aI0
aI0
aF0.05309734513274336
aI0
aF0.1592920353982301
aF0.035398230088495575
aF0.24778761061946902
aF0.8938053097345132
aF0.12389380530973451
aF0.20353982300884957
aF0.10619469026548672
aF0.05309734513274336
aF0.008849557522123894
aF0.05309734513274336
aI0
aF0.02654867256637168
a.