(lp0
F0.3594306049822064
aF0.1494661921708185
aF1.2402135231316727
aF0.03914590747330961
aF0.0035587188612099642
aF1.3380782918149465
aF0.6957295373665481
aF0.04092526690391459
aF0.012455516014234875
aI0
aF0.1512455516014235
aF2.106761565836299
aF0.5587188612099644
aF0.03914590747330961
aI0
aF0.010676156583629894
aF0.05516014234875445
aF0.8202846975088968
aF0.28647686832740216
aF0.7046263345195729
aF0.023131672597864767
aF0.0017793594306049821
aF0.06583629893238434
aI0
aF0.30071174377224197
aF0.005338078291814947
aF0.45373665480427045
aF1.1530249110320285
aF0.17793594306049823
aF0.39679715302491103
aF0.18505338078291814
aF0.09252669039145907
aF0.05516014234875445
aF0.0800711743772242
aF0.0035587188612099642
aF0.04448398576512456
a.