(lp0
F0.3583208395802099
aF0.07196401799100449
aF1.1499250374812593
aF0.035982008995502246
aF0.0029985007496251873
aF0.9850074962518741
aF0.6266866566716641
aF0.026986506746626688
aF0.008995502248875561
aI0
aF0.23088455772113944
aF1.60119940029985
aF0.4017991004497751
aF0.06146926536731634
aI0
aF0.004497751124437781
aF0.025487256371814093
aF1.025487256371814
aF0.1889055472263868
aF0.7616191904047976
aF0.022488755622188907
aF0.0029985007496251873
aF0.07946026986506746
aI0
aF0.24587706146926536
aF0.004497751124437781
aF0.5262368815592204
aF1.0434782608695652
aF0.20389805097451275
aF0.2683658170914543
aF0.18440779610194902
aF0.16491754122938532
aF0.053973013493253376
aF0.05547226386806597
aI0
aF0.05547226386806597
a.