(lp0
F0.14450867052023122
aF0.05202312138728324
aF0.4797687861271676
aF0.017341040462427744
aF0.005780346820809248
aF0.4797687861271676
aF0.3988439306358382
aI0
aI0
aI0
aF0.15606936416184972
aF1.1040462427745665
aF0.20809248554913296
aF0.03468208092485549
aI0
aI0
aF0.023121387283236993
aF0.791907514450867
aF0.2138728323699422
aF0.36416184971098264
aI0
aI0
aF0.05202312138728324
aI0
aF0.19653179190751446
aF0.017341040462427744
aF0.41040462427745666
aF0.653179190751445
aF0.06936416184971098
aF0.1791907514450867
aF0.20809248554913296
aF0.10404624277456648
aF0.005780346820809248
aF0.046242774566473986
aI0
aF0.05202312138728324
a.