(lp0
F0.41040462427745666
aF0.11560693641618497
aF1.4682080924855492
aF0.017341040462427744
aI0
aF1.4855491329479769
aF0.8901734104046243
aF0.03468208092485549
aF0.005780346820809248
aI0
aF0.10404624277456648
aF2.7745664739884393
aF0.47398843930635837
aF0.09248554913294797
aI0
aI0
aF0.09248554913294797
aF0.7861271676300579
aF0.3872832369942196
aF0.5895953757225434
aF0.023121387283236993
aI0
aF0.07514450867052024
aI0
aF0.3063583815028902
aF0.023121387283236993
aF0.44508670520231214
aF1.0982658959537572
aF0.20809248554913296
aF0.37572254335260113
aF0.2254335260115607
aF0.12138728323699421
aF0.023121387283236993
aF0.046242774566473986
aI0
aF0.046242774566473986
a.