(lp0
F0.22279792746113988
aF0.08808290155440414
aF1.005181347150259
aF0.02072538860103627
aF0.012953367875647668
aF1.0077720207253886
aF0.5310880829015544
aF0.010362694300518135
aF0.0025906735751295338
aI0
aF0.13730569948186527
aF1.66580310880829
aF0.3911917098445596
aF0.02849740932642487
aI0
aI0
aF0.04404145077720207
aF0.6761658031088082
aF0.16321243523316062
aF0.5466321243523317
aF0.0025906735751295338
aF0.0025906735751295338
aF0.07512953367875648
aI0
aF0.16839378238341968
aF0.012953367875647668
aF0.44041450777202074
aF0.7176165803108808
aF0.21502590673575128
aF0.18393782383419688
aF0.19689119170984457
aF0.08031088082901554
aF0.015544041450777202
aF0.04145077720207254
aI0
aF0.025906735751295335
a.