(lp0
F1.6099290780141844
aF0.13238770685579196
aF2.517730496453901
aF0.07565011820330969
aF0.004728132387706856
aF2.8652482269503547
aF1.8557919621749408
aF0.09456264775413711
aF0.018912529550827423
aI0
aF0.22458628841607564
aF3.7943262411347516
aF1.3120567375886525
aI0
aI0
aF0.04491725768321513
aF0.0851063829787234
aF1.6548463356973995
aF0.6761229314420804
aF1.591016548463357
aF0.03309692671394799
aF0.004728132387706856
aF0.14657210401891252
aI0
aF0.4988179669030733
aF0.037825059101654845
aF0.8014184397163121
aF2.106382978723404
aF0.4066193853427896
aF0.5791962174940898
aF0.22458628841607564
aF0.2553191489361702
aF0.1347517730496454
aF0.11347517730496454
aF0.02364066193853428
aF0.1607565011820331
a.