(lp0
F0.8582639023445069
aF0.23793838403410192
aF1.3163146677000581
aF0.03264871149002131
aF0.0163727959697733
aF1.814183297810502
aF1.0785700445650068
aF0.04766518116644061
aF0.027804689013757024
aF0.001937608990505716
aF0.3504165859329587
aF2.9798488664987404
aF0.6051152877349351
aF0.01753536136407673
aI0
aF0.029451656655686883
aF0.10065878705677195
aF1.3472195310986244
aF0.5509591164503004
aF1.194923464444875
aF0.030517341600465025
aF0.009009881805851579
aF0.07343538074016663
aF9.688044952528579e-05
aF0.5058128269715172
aF0.03768649486533617
aF1.0029064134857586
aF1.0595814764580507
aF0.2906413485758574
aF0.40844797519860493
aF0.3979848866498741
aF0.2913195117225344
aF0.0641348575857392
aF0.09901181941484208
aF0.0030032939352838597
aF0.10375896144158109
a.