(lp0
F0.4796545424348115
aF0.09882079388805846
aF1.6852682278691247
aF0.035044012622487956
aF0.02632453080883574
aF2.1556219897027074
aF0.9949343962796877
aF0.039196146819465205
aF0.02948015279853845
aF0.00024912805181863477
aF0.24846371034711842
aF3.1048829098156454
aF0.5293971101145989
aF0.02781929911974755
aF8.304268393954493e-05
aF0.017771134363062616
aF0.09956817804351437
aF1.1923268560039861
aF0.5518186347782761
aF0.9003487792725461
aF0.02391629297458894
aF0.010878591596080385
aF0.08013619000166085
aF0.0004982561036372695
aF0.5719149642916459
aF0.01635940873609035
aF0.8339146321209101
aF1.1027238000332171
aF0.3090848696229862
aF0.4920279023418037
aF0.35907656535459226
aF0.24588938714499253
aF0.1038863976083707
aF0.10587942202291978
aF0.0029895366218236174
aF0.10338814150473344
a.