(lp0
F0.6199242014076881
aF0.06367081754195994
aF1.127016783974012
aF0.03627504060638874
aF0.009095831077422848
aF1.3839740119112074
aF0.7142393069842988
aF0.02360584731997834
aF0.011911207363291824
aF0.0002165674066053059
aF0.18581483486735245
aF2.125825663237683
aF0.3532214401732539
aF0.003898213318895506
aI0
aF0.009204114780725501
aF0.06561992420140769
aF1.2594477531131565
aF0.32550081212777476
aF0.9322144017325392
aF0.01765024363833243
aF0.0010828370330265296
aF0.09052517596101786
aI0
aF0.3243096913914456
aF0.017866811044937737
aF0.601840822956145
aF1.1863562533838656
aF0.2186247969680563
aF0.35982674607471576
aF0.229020032485111
aF0.1452084461288576
aF0.04623714131023281
aF0.06085544125609096
aF0.0008662696264212236
aF0.08153762858689767
a.