(lp0
F0.4067051387743886
aF0.06897499312998076
aF1.5163506457818081
aF0.05303654850233581
aF0.004671613080516625
aF1.6606210497389393
aF0.9029953283869195
aF0.018411651552624347
aF0.011266831547128332
aF0.0002748007694421544
aF0.15169002473206925
aF2.18494091783457
aF0.7394888705688376
aI0
aI0
aF0.007694421544380325
aF0.05633415773564166
aF0.953833470733718
aF0.3660346248969497
aF0.6559494366584226
aF0.010717230008244023
aF0.0021984061555372354
aF0.048639736191261336
aI0
aF0.28084638636988185
aF0.02225886232481451
aF0.4624896949711459
aF1.1841165155262434
aF0.2783731794449024
aF0.4119263533937895
aF0.14591920857378401
aF0.08244023083264633
aF0.05001374003847211
aF0.062104973893926906
aF0.0016488046166529267
aF0.05633415773564166
a.