(lp0
F0.6509631004873521
aF0.12044557902065445
aF1.1870503597122302
aF0.02854490601067533
aF0.01462056161522395
aF1.3374332791831052
aF0.9533534462752379
aF0.0329542817359016
aF0.018101647714086795
aF0.00023207240659085636
aF0.2376421443490369
aF2.2708284984915292
aF0.5838941749825945
aF0.006265954977953121
aI0
aF0.016941285681132512
aF0.05987468090044094
aF1.1684845671849617
aF0.32142028312833604
aF1.0779763286145276
aF0.018797864933859366
aF0.007890461824089116
aF0.09491761429566024
aI0
aF0.3095845903922024
aF0.04223717799953586
aF0.702715247157113
aF0.9939661174286377
aF0.2578324437224414
aF0.2401949408215363
aF0.36133673706196334
aF0.22580645161290322
aF0.0329542817359016
aF0.041076815966581574
aI0
aF0.08841958691111627
a.