(lp0
F0.9025270758122743
aF0.1371841155234657
aF1.888086642599278
aF0.07220216606498195
aF0.02527075812274368
aF1.8303249097472925
aF1.3537906137184115
aF0.04332129963898917
aF0.010830324909747292
aI0
aF0.3104693140794224
aF3.2129963898916967
aF0.7689530685920578
aF0.007220216606498195
aI0
aF0.039711191335740074
aF0.148014440433213
aF1.2346570397111913
aF0.6534296028880866
aF1.3429602888086642
aF0.02527075812274368
aI0
aF0.13357400722021662
aI0
aF0.26353790613718414
aF0.07581227436823104
aF0.7617328519855595
aF1.2129963898916967
aF0.3140794223826715
aF0.4620938628158845
aF0.36462093862815886
aF0.3140794223826715
aF0.061371841155234655
aF0.09025270758122744
aF0.0036101083032490976
aF0.148014440433213
a.