(lp0
F0.7466883569602603
aF0.08970485707645828
aF1.2844527074134324
aF0.03485940041831281
aF0.015570532186846387
aF1.4757146177085754
aF1.039507320474088
aF0.024401580292818963
aF0.030211480362537766
aI0
aF0.313966999767604
aF2.5826167789914014
aF0.6098071113176854
aF0.008598652103183826
aI0
aF0.02393678828724146
aF0.07924703695096444
aF1.200557750406693
aF0.40204508482454104
aF0.9216825470601906
aF0.016267720195212644
aF0.00906344410876133
aF0.040436904485242856
aF0.00023239600278875203
aF0.3925168487102022
aF0.024633976295607717
aF0.803160585637927
aF0.9319079711828957
aF0.20311410643736927
aF0.3564954682779456
aF0.372995584475947
aF0.31141064373692773
aF0.05066232860794794
aF0.06716244480594934
aF0.0018591680223100163
aF0.08761329305135952
a.