(lp0
F0.6546358248900784
aF0.17985088893137066
aF1.869738099789715
aF0.024125406232077998
aF0.08487860829669279
aF2.033454406423246
aF1.003058688587268
aF0.03678073026190021
aF0.02676352513859683
aF0.0009558401835213152
aF0.2844962722232843
aF3.2249283119862358
aF0.7152360925253297
aF0.03632192697380998
aF7.646721468170522e-05
aF0.02355190212196521
aF0.06648824316574269
aF1.2387306442362838
aF0.5417319824125406
aF1.0185432995603134
aF0.025960619384438922
aF0.01479640604090996
aF0.05096539858535653
aI0
aF0.4886637354234372
aF0.05119480022940164
aF0.8562416363983942
aF1.1885299177977442
aF0.2883578665647104
aF0.5732747084687441
aF0.4414069967501434
aF0.3044542152552093
aF0.13167654368189638
aF0.1564519212387689
aF0.01009367233798509
aF0.0922959281208182
a.