(lp0
F0.7592207792207792
aF0.11541125541125541
aF2.15982683982684
aF0.05272727272727273
aF0.008658008658008658
aF2.271861471861472
aF0.9973160173160173
aF0.051255411255411255
aF0.03593073593073593
aF0.001038961038961039
aF0.24597402597402598
aF3.2864935064935064
aF0.8468398268398268
aF0.005627705627705628
aI0
aF0.024935064935064935
aF0.045281385281385284
aF1.0804329004329005
aF0.4354978354978355
aF0.9546320346320346
aF0.030822510822510824
aF0.010043290043290043
aF0.05064935064935065
aF8.658008658008658e-05
aF0.4325541125541126
aF0.0212987012987013
aF0.6851082251082251
aF1.1406060606060606
aF0.2999134199134199
aF0.4605194805194805
aF0.2752380952380952
aF0.23333333333333334
aF0.09445887445887446
aF0.1045021645021645
aF0.005454545454545455
aF0.08432900432900432
a.