(lp0
F0.7307928703134604
aF0.18930547019053473
aF1.7799631223110017
aF0.028272894898586354
aF0.009834050399508297
aF2.0602335586969884
aF1.0426142183978693
aF0.028682646998565868
aF0.020692481048965376
aI0
aF0.22085638188895718
aF3.21020282728949
aF0.9754148740012293
aF0.012087686949395616
aI0
aF0.016594960049170254
aF0.06084818684695759
aF0.9690637164515468
aF0.4839172300758041
aF0.733661135013317
aF0.01946322474902684
aF0.007990165949600492
aF0.05552140954722393
aF0.0004097520999795124
aF0.4306494570784675
aF0.01679983609916001
aF0.6859250153657037
aF1.2388854742880557
aF0.25609506248719527
aF0.6056136037697193
aF0.2671583691866421
aF0.2052858020897357
aF0.08051628764597418
aF0.11247695144437615
aF0.00594140544970293
aF0.1089940585945503
a.