(lp0
F0.6720430107526881
aF0.10215053763440861
aF1.532258064516129
aF0.03225806451612903
aI0
aF1.8870967741935485
aF0.9032258064516129
aF0.026881720430107527
aF0.021505376344086023
aI0
aF0.24193548387096775
aF2.8655913978494625
aF0.5645161290322581
aI0
aI0
aF0.016129032258064516
aF0.053763440860215055
aF1.0483870967741935
aF0.4838709677419355
aF1.0698924731182795
aF0.010752688172043012
aI0
aF0.16129032258064516
aI0
aF0.3387096774193548
aI0
aF0.553763440860215
aF1.3978494623655915
aF0.27956989247311825
aF0.43548387096774194
aF0.11827956989247312
aF0.10752688172043011
aF0.11290322580645161
aF0.13440860215053763
aI0
aF0.0967741935483871
a.