(lp0
F1.085761316872428
aF0.1288888888888889
aF3.019917695473251
aF0.05432098765432099
aF0.012839506172839505
aF3.380246913580247
aF2.0243621399176956
aF0.06123456790123457
aF0.05185185185185185
aF0.0004938271604938272
aF0.3022222222222222
aF4.719341563786008
aF1.1493004115226337
aF0.013827160493827161
aI0
aF0.03868312757201646
aF0.1111111111111111
aF1.019753086419753
aF0.8062551440329218
aF1.2663374485596708
aF0.039835390946502056
aF0.013662551440329218
aF0.08641975308641975
aI0
aF0.5111111111111111
aF0.016131687242798353
aF0.8357201646090535
aF1.319670781893004
aF0.3916049382716049
aF0.7667489711934157
aF0.2948148148148148
aF0.30765432098765433
aF0.20263374485596708
aF0.11061728395061729
aF0.015637860082304528
aF0.12131687242798354
a.