(lp0
F0.4375
aF0.109375
aF1.484375
aF0.026041666666666668
aI0
aF1.1041666666666667
aF0.8697916666666666
aF0.046875
aF0.020833333333333332
aI0
aF0.15104166666666666
aF2.0520833333333335
aF0.6979166666666666
aF0.046875
aI0
aF0.010416666666666666
aF0.046875
aF0.703125
aF0.11979166666666667
aF0.7708333333333334
aF0.020833333333333332
aF0.015625
aF0.08333333333333333
aI0
aF0.22395833333333334
aF0.03125
aF0.4270833333333333
aF0.8333333333333334
aF0.171875
aF0.34375
aF0.265625
aF0.19270833333333334
aF0.0625
aF0.0625
aI0
aF0.06770833333333333
a.