(lp0
F0.5857843137254902
aF0.06372549019607843
aF1.3627450980392157
aF0.0392156862745098
aI0
aF1.4068627450980393
aF0.7843137254901961
aF0.031862745098039214
aF0.007352941176470588
aF0.0024509803921568627
aF0.21568627450980393
aF2.517156862745098
aF0.5514705882352942
aF0.007352941176470588
aI0
aF0.0024509803921568627
aF0.07107843137254902
aF1.0637254901960784
aF0.40931372549019607
aF0.8161764705882353
aF0.0196078431372549
aF0.00980392156862745
aF0.11029411764705882
aI0
aF0.22303921568627452
aF0.031862745098039214
aF0.5514705882352942
aF1.1887254901960784
aF0.22794117647058823
aF0.32107843137254904
aF0.19852941176470587
aF0.11519607843137254
aF0.061274509803921566
aF0.05392156862745098
aI0
aF0.051470588235294115
a.