(lp0
F0.5163398692810458
aF0.1503267973856209
aF1.908496732026144
aF0.0718954248366013
aF0.006535947712418301
aF2.045751633986928
aF1.4379084967320261
aF0.0392156862745098
aF0.026143790849673203
aI0
aF0.13725490196078433
aF2.8366013071895426
aF1.0065359477124183
aF0.058823529411764705
aI0
aF0.032679738562091505
aF0.0196078431372549
aF0.7516339869281046
aF0.26143790849673204
aF1.0784313725490196
aF0.013071895424836602
aF0.006535947712418301
aF0.12418300653594772
aI0
aF0.35294117647058826
aI0
aF0.46405228758169936
aF1.4836601307189543
aF0.3333333333333333
aF0.41830065359477125
aF0.10457516339869281
aF0.0784313725490196
aF0.0457516339869281
aF0.0915032679738562
aF0.013071895424836602
aF0.05228758169934641
a.