(lp0
F0.37681159420289856
aF0.14492753623188406
aF1.3043478260869565
aF0.014492753623188406
aI0
aF0.927536231884058
aF0.7971014492753623
aI0
aF0.028985507246376812
aI0
aF0.043478260869565216
aF2.8115942028985508
aF0.5507246376811594
aF0.014492753623188406
aI0
aI0
aF0.028985507246376812
aF0.2753623188405797
aF0.15942028985507245
aF0.5942028985507246
aI0
aI0
aF0.014492753623188406
aI0
aF0.2463768115942029
aF0.028985507246376812
aF0.2753623188405797
aF0.6231884057971014
aF0.2318840579710145
aF0.3188405797101449
aF0.15942028985507245
aF0.15942028985507245
aI0
aF0.043478260869565216
aI0
aF0.014492753623188406
a.