(lp0
F0.7527352297592997
aF0.087527352297593
aF1.787746170678337
aF0.03938730853391685
aI0
aF1.6564551422319476
aF1.1225382932166301
aF0.03282275711159737
aF0.01312910284463895
aI0
aF0.24726477024070023
aF2.7768052516411377
aF0.6695842450765864
aF0.0700218818380744
aI0
aF0.015317286652078774
aF0.07658643326039387
aF0.9474835886214442
aF0.29978118161925604
aF0.9562363238512035
aF0.015317286652078774
aF0.002188183807439825
aF0.1137855579868709
aI0
aF0.33698030634573306
aF0.0087527352297593
aF0.5776805251641138
aF1.2297592997811817
aF0.3304157549234136
aF0.37199124726477023
aF0.0962800875273523
aF0.08096280087527352
aF0.08096280087527352
aF0.0262582056892779
aF0.002188183807439825
aF0.05470459518599562
a.