(lp0
F0.9114320096269555
aF0.10637785800240673
aF1.9114320096269555
aF0.039951865222623346
aF0.025511432009626956
aF2.2490974729241877
aF0.9730445246690734
aF0.03802647412755716
aF0.017087845968712396
aI0
aF0.3675090252707581
aF3.3448856799037303
aF0.6219013237063779
aF0.032490974729241874
aI0
aF0.01516245487364621
aF0.0555956678700361
aF1.3831528279181708
aF0.3877256317689531
aF0.9891696750902527
aF0.017087845968712396
aF0.002888086642599278
aF0.13742478941034897
aF0.00024067388688327315
aF0.46594464500601684
aF0.018772563176895306
aF1.1193742478941036
aF1.2524669073405537
aF0.3499398315282792
aF0.39903730445246693
aF0.41636582430806257
aF0.27148014440433216
aF0.07412755716004814
aF0.12442839951865223
aF0.00024067388688327315
aF0.10734055354993983
a.