(lp0
F1.3254010695187166
aF0.1232620320855615
aF2.4184491978609626
aF0.04839572192513369
aF0.014171122994652407
aF3.1820855614973262
aF2.010427807486631
aF0.07245989304812835
aF0.07112299465240642
aF0.001336898395721925
aF0.40641711229946526
aF4.995187165775401
aF0.9529411764705882
aF0.015240641711229946
aI0
aF0.028877005347593583
aF0.13983957219251336
aF1.396524064171123
aF0.9695187165775401
aF1.7601604278074867
aF0.06390374331550802
aF0.02406417112299465
aF0.04679144385026738
aF0.00026737967914438503
aF0.686096256684492
aF0.03609625668449198
aF1.1179144385026738
aF1.6205882352941177
aF0.38796791443850265
aF0.9871657754010695
aF0.2540106951871658
aF0.21363636363636362
aF0.1711229946524064
aF0.1213903743315508
aF0.025133689839572194
aF0.11657754010695187
a.