(lp0
F0.5973451327433629
aF0.1415929203539823
aF1.4823008849557522
aF0.022123893805309734
aF0.022123893805309734
aF1.7433628318584071
aF0.9911504424778761
aF0.01327433628318584
aF0.01327433628318584
aI0
aF0.08849557522123894
aF2.5707964601769913
aF0.7920353982300885
aI0
aI0
aF0.017699115044247787
aF0.07079646017699115
aF0.7300884955752213
aF0.415929203539823
aF0.7522123893805309
aF0.022123893805309734
aI0
aF0.048672566371681415
aI0
aF0.26548672566371684
aF0.030973451327433628
aF0.38495575221238937
aF0.8141592920353983
aF0.1592920353982301
aF0.23008849557522124
aF0.3141592920353982
aF0.38495575221238937
aF0.06637168141592921
aF0.04424778761061947
aF0.004424778761061947
aF0.11061946902654868
a.