(lp0
F0.5030487804878049
aF0.0701219512195122
aF1.0304878048780488
aF0.012195121951219513
aF0.006097560975609756
aF1.1829268292682926
aF0.9817073170731707
aF0.009146341463414634
aF0.027439024390243903
aI0
aF0.18902439024390244
aF2.158536585365854
aF0.5213414634146342
aF0.003048780487804878
aI0
aF0.018292682926829267
aF0.03353658536585366
aF1.1189024390243902
aF0.5213414634146342
aF0.8170731707317073
aF0.006097560975609756
aF0.012195121951219513
aF0.04573170731707317
aF0.006097560975609756
aF0.32621951219512196
aF0.009146341463414634
aF0.6219512195121951
aF0.8871951219512195
aF0.23780487804878048
aF0.3628048780487805
aF0.4725609756097561
aF0.1676829268292683
aF0.04573170731707317
aF0.10670731707317073
aI0
aF0.0701219512195122
a.