(lp0
F1.4448832417582418
aF0.29447115384615385
aF3.2214972527472527
aF0.059409340659340656
aF0.04927884615384615
aF4.3233173076923075
aF1.6727335164835164
aF0.08550824175824176
aF0.05786401098901099
aF0.0020604395604395605
aF0.6114354395604396
aF5.287774725274725
aF1.4805975274725274
aF0.017170329670329672
aI0
aF0.06953983516483517
aF0.10628434065934066
aF2.371394230769231
aF1.1413118131868132
aF1.6407967032967032
aF0.04945054945054945
aF0.025412087912087912
aF0.1198489010989011
aF0.007554945054945055
aF1.041723901098901
aF0.015796703296703296
aF1.6627747252747254
aF1.9141483516483517
aF0.5336538461538461
aF0.9804258241758241
aF0.6692994505494505
aF0.4608516483516483
aF0.24364697802197802
aF0.3088942307692308
aF0.012362637362637362
aF0.16844093406593408
a.