(lp0
F0.816116588084012
aF0.13009001285897986
aF1.649807115302186
aF0.054222031718816975
aF0.014144877839691384
aF1.9496356622374624
aF1.108444063437634
aF0.03493356193741963
aF0.0244320617231033
aF0.0002143163309044149
aF0.20145735105015003
aF2.78932704672096
aF0.6360908701243034
aF0.021217316759537076
aF0.0002143163309044149
aF0.02914702100300043
aF0.062151735962280324
aF1.164809258465495
aF0.38148306900985857
aF1.0852978996999572
aF0.021217316759537076
aF0.007286755250750107
aF0.08744106300900129
aI0
aF0.3493356193741963
aF0.01478782683240463
aF0.6123017573939135
aF1.3489069867123875
aF0.2978996999571367
aF0.3849121303043292
aF0.25953707672524645
aF0.19181311615945135
aF0.06300900128589798
aF0.07158165452207459
aF0.0021431633090441492
aF0.08144020574367766
a.