(lp0
F0.47406838263542067
aF0.06089127929312332
aF1.1121782558586246
aF0.03611217825585863
aF0.011909335382251248
aF1.3467153284671534
aF0.747791010372647
aF0.029197080291970802
aF0.01536688436419516
aI0
aF0.2378025355359201
aF2.1868997310795235
aF0.44487130234344985
aF0.002689204763734153
aI0
aF0.015751056473300037
aF0.058970418747598924
aF1.126392623895505
aF0.2975412985017288
aF0.9452554744525548
aF0.01536688436419516
aF0.004033807145601229
aF0.06588551671148675
aI0
aF0.2814060699193239
aF0.031886285055704955
aF0.6454091432961967
aF1.1580868228966577
aF0.17383787936995773
aF0.32116788321167883
aF0.2908182865923934
aF0.20341913177103343
aF0.051863234729158665
aF0.07376104494813676
aF0.003073376872839032
aF0.08067614291202459
a.