(lp0
F0.5600284158181388
aF0.11461046649301444
aF1.7667534927776463
aF0.03409898176651669
aF0.04428131659957376
aF2.091877811982003
aF1.1411318967558608
aF0.037177362064882785
aF0.03741416054937249
aF0.0004735969689793985
aF0.2682926829268293
aF3.1979635330333887
aF0.47856973715368223
aF0.008998342410608573
aI0
aF0.022022259057542033
aF0.09069381955955481
aF1.0996921619701634
aF0.46246744020838265
aF1.254321572341937
aF0.031257399952640305
aF0.011366327255505565
aF0.06298839687426
aF0.00023679848448969926
aF0.49348804167653326
aF0.012550319677954062
aF0.8141131896755861
aF1.3459625858394506
aF0.31186360407293395
aF0.5053279659010183
aF0.2803694056358039
aF0.18636040729339332
aF0.10821690741179256
aF0.08051148472649775
aF0.004499171205304286
aF0.10513852711342647
a.