(lp0
F0.6299587432561091
aF0.1320215804506506
aF1.7435734687400826
aF0.04855601396382101
aF0.03268803554427166
aF2.047603935258648
aF1.3836877181847034
aF0.05553792446842272
aF0.02507140590288797
aI0
aF0.29387496033005395
aF3.317042208822596
aF0.6055220564900031
aF0.013329101872421454
aI0
aF0.022849888924151063
aF0.10441129800063471
aF1.2224690574420818
aF0.45985401459854014
aF1.5011107584893684
aF0.0390352269120914
aF0.012377023167248492
aF0.08632180260234847
aF0.00031735956839098697
aF0.4950809266899397
aF0.035544271659790544
aF0.8349730244366868
aF1.0850523643287846
aF0.269120913995557
aF0.5760076166296414
aF0.3849571564582672
aF0.37543636940653763
aF0.09615994922246905
aF0.1342430974293875
aF0.007933989209774674
aF0.09806410663281498
a.