(lp0
F0.4461538461538462
aF0.11282051282051282
aF1.4974358974358974
aF0.03076923076923077
aI0
aF1.1128205128205129
aF0.9076923076923077
aF0.046153846153846156
aF0.02564102564102564
aI0
aF0.15897435897435896
aF2.1076923076923078
aF0.7128205128205128
aF0.046153846153846156
aI0
aF0.010256410256410256
aF0.05128205128205128
aF0.6923076923076923
aF0.12307692307692308
aF0.7743589743589744
aF0.020512820512820513
aF0.015384615384615385
aF0.08205128205128205
aI0
aF0.22564102564102564
aF0.03076923076923077
aF0.4307692307692308
aF0.8358974358974359
aF0.16923076923076924
aF0.358974358974359
aF0.27692307692307694
aF0.19487179487179487
aF0.06153846153846154
aF0.06153846153846154
aI0
aF0.06666666666666667
a.