(lp0
F1.0666666666666667
aF0.07878787878787878
aF1.812121212121212
aF0.09696969696969697
aF0.048484848484848485
aF1.9333333333333333
aF1.3818181818181818
aF0.04242424242424243
aF0.024242424242424242
aI0
aF0.30303030303030304
aF3.4060606060606062
aF0.503030303030303
aF0.024242424242424242
aI0
aF0.01818181818181818
aF0.07878787878787878
aF1.4424242424242424
aF0.34545454545454546
aF1.387878787878788
aI0
aF0.012121212121212121
aF0.21818181818181817
aI0
aF0.296969696969697
aF0.012121212121212121
aF0.9696969696969697
aF1.696969696969697
aF0.3575757575757576
aF0.3575757575757576
aF0.41818181818181815
aF0.24242424242424243
aF0.048484848484848485
aF0.06666666666666667
aI0
aF0.2
a.