(lp0
F0.3565217391304348
aF0.1565217391304348
aF1.3043478260869565
aF0.017391304347826087
aI0
aF0.9739130434782609
aF0.6173913043478261
aF0.008695652173913044
aF0.017391304347826087
aI0
aF0.06086956521739131
aF1.626086956521739
aF0.991304347826087
aF0.017391304347826087
aI0
aF0.06086956521739131
aF0.043478260869565216
aF0.4260869565217391
aF0.0782608695652174
aF0.6434782608695652
aF0.017391304347826087
aF0.008695652173913044
aF0.0782608695652174
aI0
aF0.12173913043478261
aF0.06086956521739131
aF0.2608695652173913
aF0.8869565217391304
aF0.16521739130434782
aF0.2608695652173913
aF0.08695652173913043
aF0.09565217391304348
aF0.02608695652173913
aF0.14782608695652175
aI0
aF0.043478260869565216
a.