(lp0
F0.5704225352112676
aF0.02112676056338028
aF1.3591549295774648
aF0.06338028169014084
aF0.007042253521126761
aF1.471830985915493
aF1.056338028169014
aF0.02112676056338028
aF0.04225352112676056
aI0
aF0.21830985915492956
aF2.711267605633803
aF0.4154929577464789
aF0.08450704225352113
aI0
aI0
aF0.19718309859154928
aF1.0492957746478873
aF0.47183098591549294
aF1.119718309859155
aF0.056338028169014086
aI0
aF0.07746478873239436
aI0
aF0.24647887323943662
aF0.035211267605633804
aF0.6338028169014085
aF1.1338028169014085
aF0.323943661971831
aF0.29577464788732394
aF0.28169014084507044
aF0.2676056338028169
aF0.04929577464788732
aF0.07042253521126761
aI0
aF0.1619718309859155
a.