(lp0
F1.1300813008130082
aF0.07317073170731707
aF2.4715447154471546
aF0.08130081300813008
aF0.008130081300813009
aF2.178861788617886
aF1.9024390243902438
aF0.016260162601626018
aI0
aI0
aF0.1951219512195122
aF3.8536585365853657
aF0.34146341463414637
aF0.008130081300813009
aI0
aF0.032520325203252036
aF0.04065040650406504
aF0.7723577235772358
aF0.5447154471544715
aF1.2195121951219512
aF0.07317073170731707
aI0
aF0.07317073170731707
aI0
aF0.2601626016260163
aF0.032520325203252036
aF0.4796747967479675
aF0.9024390243902439
aF0.1951219512195122
aF0.5040650406504065
aF0.13008130081300814
aF0.4715447154471545
aF0.056910569105691054
aF0.13008130081300814
aI0
aF0.06504065040650407
a.