(lp0
F0.5555555555555556
aF0.08518518518518518
aF1.4814814814814814
aF0.040740740740740744
aI0
aF1.2555555555555555
aF0.5037037037037037
aF0.022222222222222223
aF0.003703703703703704
aI0
aF0.13703703703703704
aF1.8444444444444446
aF0.6259259259259259
aF0.003703703703703704
aF0.003703703703703704
aI0
aF0.05185185185185185
aF0.9777777777777777
aF0.44814814814814813
aF0.7407407407407407
aF0.018518518518518517
aI0
aF0.13333333333333333
aI0
aF0.21851851851851853
aF0.007407407407407408
aF0.3074074074074074
aF1.3925925925925926
aF0.1
aF0.32592592592592595
aF0.07407407407407407
aF0.05185185185185185
aF0.011111111111111112
aF0.037037037037037035
aF0.003703703703703704
aF0.1037037037037037
a.