(lp0
F0.5789827470311449
aF0.10262155500784226
aF1.6258122339233698
aF0.03965942191351109
aF0.012323549182164464
aF2.0060497423257897
aF0.9659421913511091
aF0.04582119650459332
aF0.024311001568451715
aF0.00033609679587721263
aF0.31873179475689
aF2.7509522742549852
aF0.5570244230338337
aF0.00638583912166704
aF0.00011203226529240422
aF0.022518485323773246
aF0.07562177907237284
aF1.178803495406677
aF0.4299798341922474
aF1.1456419448801254
aF0.03260138920008963
aF0.0047053551422809765
aF0.08178355366345508
aI0
aF0.45641944880125473
aF0.02789603405780865
aF0.8410262155500784
aF1.1423930091866457
aF0.3094331167376204
aF0.4967510643065203
aF0.3254537306744342
aF0.22910598252296663
aF0.0987004257226081
aF0.09937261931436253
aF0.005825677795205019
aF0.12166704010755097
a.