(lp0
F0.4255150554675119
aF0.05952852614896989
aF1.4117472266244058
aF0.03377575277337559
aF0.04457210776545167
aF1.811014263074485
aF0.9929675118858954
aF0.030903328050713153
aF0.023969889064976227
aF9.904912836767037e-05
aF0.19710776545166403
aF2.428387480190174
aF0.4385895404120444
aF0.019512678288431062
aI0
aF0.020404120443740095
aF0.05091125198098257
aF1.0397187004754358
aF0.38084389857369255
aF1.043581616481775
aF0.020503169572107766
aF0.011687797147385102
aF0.07963549920760697
aI0
aF0.3646988906497623
aF0.0223851030110935
aF0.6023177496038035
aF1.008122028526149
aF0.27060221870047546
aF0.38658874801901744
aF0.23236925515055468
aF0.16868066561014264
aF0.06467908082408874
aF0.08547939778129952
aF0.002179080824088748
aF0.06497622820919176
a.