(lp0
F0.3556373036388944
aF0.07068999801153311
aF1.1391926824418372
aF0.034301053887452776
aF0.010638297872340425
aF1.2755020878902366
aF0.7243984887651621
aF0.01948697554185723
aF0.019785245575661164
aI0
aF0.1806522171405846
aF2.083018492742096
aF0.3435076555975343
aF0.018393318751242792
aI0
aF0.019387552197255915
aF0.04503877510439451
aF0.9298071187114735
aF0.25551799562537286
aF0.8029429310001989
aF0.021873135812288724
aF0.006164247365281368
aF0.06472459733545437
aF9.942334460131238e-05
aF0.3096042950884868
aF0.034002783853648834
aF0.5956452575064625
aF0.8793000596540068
aF0.22767945913700538
aF0.335454364684828
aF0.2883276993438059
aF0.1807516404851859
aF0.06124478027440843
aF0.08381387949890634
aF0.0031815470272419963
aF0.07188307814674885
a.