(lp0
F0.2583225502882014
aF0.06975649923538407
aF0.6978002587930832
aF0.017174450064698272
aF0.003528996588636631
aF0.7180331725679332
aF0.4553581931537466
aF0.018703681919774146
aF0.009645924008940125
aF0.0003528996588636631
aF0.10857546171038701
aF1.4535936948594284
aF0.2809081284554758
aF0.003058463710151747
aI0
aF0.003528996588636631
aF0.02952593812492648
aF0.7655569932949065
aF0.1924479473003176
aF0.5457005058228444
aF0.017174450064698272
aF0.0011763321962122103
aF0.06728620162333843
aI0
aF0.18091989177743795
aF0.024467709681213975
aF0.3627808493118457
aF0.8181390424655923
aF0.15351135160569346
aF0.16786260439948242
aF0.16445124103046702
aF0.09328314315962828
aF0.014704152452652629
aF0.04023056111045759
aI0
aF0.05128808375485237
a.