(lp0
F0.7903780068728522
aF0.12371134020618557
aF1.711340206185567
aF0.024054982817869417
aF0.027491408934707903
aF2.1512027491408934
aF0.9415807560137457
aF0.03436426116838488
aF0.020618556701030927
aI0
aF0.2852233676975945
aF2.7800687285223367
aF0.7353951890034365
aI0
aI0
aF0.01718213058419244
aF0.020618556701030927
aF1.4639175257731958
aF0.42955326460481097
aF0.9175257731958762
aF0.01718213058419244
aF0.013745704467353952
aF0.03436426116838488
aI0
aF0.38831615120274915
aF0.013745704467353952
aF0.6941580756013745
aF1.4501718213058419
aF0.3127147766323024
aF0.4639175257731959
aF0.27835051546391754
aF0.09621993127147767
aF0.054982817869415807
aF0.054982817869415807
aF0.003436426116838488
aF0.12027491408934708
a.