(lp0
F0.8935599284436494
aF0.16547406082289803
aF2.40742397137746
aF0.059033989266547404
aF0.016100178890876567
aF3.1753130590339893
aF1.565742397137746
aF0.05813953488372093
aF0.040697674418604654
aI0
aF0.3501788908765653
aF3.664132379248658
aF1.0402504472271914
aI0
aI0
aF0.025044722719141325
aF0.055008944543828264
aF1.4879248658318425
aF0.6238819320214669
aF1.3269230769230769
aF0.03801431127012522
aF0.017889087656529516
aF0.09391771019677997
aI0
aF0.5889982110912343
aF0.005813953488372093
aF0.9038461538461539
aF1.7383720930232558
aF0.36493738819320215
aF0.6587656529516994
aF0.3542039355992844
aF0.1981216457960644
aF0.18783542039355994
aF0.09212880143112702
aF0.005813953488372093
aF0.1346153846153846
a.