(lp0
F0.47113654946852
aF0.1429272281275552
aF0.976778413736713
aF0.026819296811120195
aF0.012919051512673753
aF1.178250204415372
aF0.799182338511856
aF0.04251839738348324
aF0.023548650858544563
aF0.00032706459525756336
aF0.2822567457072772
aF1.8556009811937857
aF0.4830744071954211
aF0.017825020441537203
aF0.00032706459525756336
aF0.015862632869991823
aF0.05592804578904333
aF0.8791496320523303
aF0.20670482420278005
aF1.0044153720359772
aF0.020278004905968927
aF0.004415372035977106
aF0.0704824202780049
aF0.0004905968928863451
aF0.2649223221586263
aF0.03793949304987735
aF0.7054783319705642
aF0.5731807031888798
aF0.18184791496320524
aF0.24055600981193787
aF0.3954210956663941
aF0.21766148814390843
aF0.03581357318070319
aF0.05919869174161897
aF0.0008176614881439084
aF0.06623058053965658
a.