(lp0
F0.5576102418207681
aF0.03840682788051209
aF1.5220483641536273
aF0.05547652916073969
aF0.001422475106685633
aF1.5533428165007113
aF1.031294452347084
aF0.03556187766714083
aF0.008534850640113799
aI0
aF0.11806543385490754
aF2.258890469416785
aF0.422475106685633
aI0
aI0
aF0.02844950213371266
aF0.07396870554765292
aF1.0668563300142246
aF0.4352773826458037
aF0.8463726884779517
aF0.01849217638691323
aI0
aF0.09388335704125178
aI0
aF0.2332859174964438
aF0.01422475106685633
aF0.3442389758179232
aF1.3428165007112376
aF0.3186344238975818
aF0.3285917496443812
aF0.03556187766714083
aF0.01849217638691323
aF0.051209103840682786
aF0.02275960170697013
aF0.001422475106685633
aF0.06258890469416785
a.