(lp0
F0.135678391959799
aF0.01507537688442211
aF0.7587939698492462
aF0.017587939698492462
aF0.002512562814070352
aF0.6180904522613065
aF0.3793969849246231
aF0.01256281407035176
aF0.010050251256281407
aI0
aF0.11055276381909548
aF1.2386934673366834
aF0.27638190954773867
aF0.022613065326633167
aI0
aF0.002512562814070352
aF0.01507537688442211
aF0.6633165829145728
aF0.17587939698492464
aF0.4371859296482412
aF0.005025125628140704
aI0
aF0.09547738693467336
aI0
aF0.1457286432160804
aF0.007537688442211055
aF0.3844221105527638
aF0.6256281407035176
aF0.19095477386934673
aF0.11055276381909548
aF0.21608040201005024
aF0.17839195979899497
aF0.005025125628140704
aF0.04773869346733668
aI0
aF0.04522613065326633
a.