(lp0
F0.2219679633867277
aF0.07208237986270023
aF1.0
aF0.03318077803203661
aF0.003432494279176201
aF0.9004576659038902
aF0.5011441647597255
aF0.013729977116704805
aF0.005720823798627002
aI0
aF0.10640732265446225
aF1.6189931350114417
aF0.43821510297482835
aF0.02517162471395881
aI0
aF0.005720823798627002
aF0.028604118993135013
aF0.6624713958810069
aF0.20823798627002288
aF0.5732265446224256
aF0.0011441647597254005
aI0
aF0.10411899313501144
aI0
aF0.15446224256292906
aF0.011441647597254004
aF0.38329519450800914
aF0.6967963386727689
aF0.2894736842105263
aF0.16704805491990846
aF0.20251716247139587
aF0.08352402745995423
aF0.013729977116704805
aF0.05263157894736842
aF0.0011441647597254005
aF0.03318077803203661
a.