(lp0
F0.4778481012658228
aF0.06329113924050633
aF1.3322784810126582
aF0.10443037974683544
aF0.00949367088607595
aF1.4145569620253164
aF0.7974683544303798
aF0.04113924050632911
aF0.015822784810126583
aI0
aF0.33544303797468356
aF2.2974683544303796
aF0.5031645569620253
aF0.0949367088607595
aI0
aF0.028481012658227847
aF0.06329113924050633
aF1.0506329113924051
aF0.28164556962025317
aF0.9746835443037974
aF0.022151898734177215
aI0
aF0.10443037974683544
aI0
aF0.33544303797468356
aF0.00949367088607595
aF0.6582278481012658
aF1.1518987341772151
aF0.3037974683544304
aF0.4272151898734177
aF0.14556962025316456
aF0.060126582278481014
aF0.05063291139240506
aF0.09177215189873418
aF0.0031645569620253164
aF0.08544303797468354
a.