(lp0
F0.6382801664355062
aF0.08876560332871013
aF1.9284327323162274
aF0.043550624133148405
aF0.031067961165048542
aF2.319001386962552
aF1.29625520110957
aF0.034396671289875176
aF0.03550624133148405
aI0
aF0.23411927877947294
aF3.4918169209431347
aF0.6712898751733704
aF0.030513176144244106
aF0.0005547850208044383
aF0.02274618585298197
aF0.07434119278779473
aF0.926490984743412
aF0.45020804438280165
aF1.1312066574202497
aF0.022191400832177532
aF0.011927877947295423
aF0.0957004160887656
aI0
aF0.47794729542302355
aF0.02274618585298197
aF0.744244105409154
aF1.253259361997226
aF0.3087378640776699
aF0.5234396671289875
aF0.29015256588072125
aF0.17586685159500692
aF0.10901525658807212
aF0.08321775312066575
aF0.0036061026352288486
aF0.08016643550624133
a.