(lp0
F0.5513505025125628
aF0.0519786432160804
aF1.3407663316582914
aF0.024183417085427136
aF0.012248743718592964
aF1.5021984924623115
aF0.8195665829145728
aF0.04255653266331658
aF0.02229899497487437
aI0
aF0.23115577889447236
aF2.1314384422110555
aF0.4610552763819096
aF0.0043969849246231155
aF0.000157035175879397
aF0.017273869346733667
aF0.07255025125628141
aF1.162217336683417
aF0.36604899497487436
aF0.9866520100502513
aF0.02355527638190955
aF0.00989321608040201
aF0.059673366834170856
aI0
aF0.31909547738693467
aF0.027324120603015076
aF0.6383479899497487
aF1.1369346733668342
aF0.21074120603015076
aF0.3913316582914573
aF0.2735552763819096
aF0.19111180904522612
aF0.05606155778894473
aF0.09830402010050251
aF0.0018844221105527637
aF0.11322236180904523
a.