(lp0
F0.4365079365079365
aF0.19047619047619047
aF1.3571428571428572
aF0.031746031746031744
aF0.023809523809523808
aF1.4841269841269842
aF0.8095238095238095
aF0.03968253968253968
aI0
aI0
aF0.2857142857142857
aF2.7777777777777777
aF0.7777777777777778
aF0.31746031746031744
aI0
aF0.015873015873015872
aF0.015873015873015872
aF0.5873015873015873
aF0.5317460317460317
aF0.8888888888888888
aF0.031746031746031744
aI0
aF0.05555555555555555
aI0
aF0.3253968253968254
aI0
aF0.626984126984127
aF0.8492063492063492
aF0.24603174603174602
aF0.3968253968253968
aF0.3888888888888889
aF0.2619047619047619
aF0.07142857142857142
aF0.06349206349206349
aI0
aF0.07936507936507936
a.