(lp0
F0.5
aF0.10377358490566038
aF1.8113207547169812
aF0.018867924528301886
aI0
aF1.6226415094339623
aF1.3679245283018868
aF0.04716981132075472
aI0
aI0
aF0.16981132075471697
aF2.849056603773585
aF0.8018867924528302
aF0.11320754716981132
aI0
aF0.04716981132075472
aF0.03773584905660377
aF0.7641509433962265
aF0.2830188679245283
aF0.9245283018867925
aI0
aF0.009433962264150943
aF0.0660377358490566
aI0
aF0.33962264150943394
aF0.018867924528301886
aF0.4811320754716981
aF1.009433962264151
aF0.1792452830188679
aF0.29245283018867924
aF0.18867924528301888
aF0.2830188679245283
aF0.08490566037735849
aF0.02830188679245283
aI0
aF0.02830188679245283
a.