(lp0
F0.5544554455445545
aF0.07920792079207921
aF1.0495049504950495
aF0.0297029702970297
aF0.009900990099009901
aF1.2277227722772277
aF0.8415841584158416
aF0.06930693069306931
aF0.0297029702970297
aI0
aF0.13861386138613863
aF2.089108910891089
aF0.48514851485148514
aF0.04950495049504951
aI0
aF0.019801980198019802
aF0.06930693069306931
aF1.00990099009901
aF0.4158415841584158
aF0.7326732673267327
aF0.0297029702970297
aF0.009900990099009901
aF0.009900990099009901
aI0
aF0.1782178217821782
aF0.039603960396039604
aF0.504950495049505
aF1.2376237623762376
aF0.22772277227722773
aF0.37623762376237624
aF0.26732673267326734
aF0.1782178217821782
aF0.019801980198019802
aF0.06930693069306931
aI0
aF0.04950495049504951
a.