(lp0
F0.2752808988764045
aF0.10674157303370786
aF0.9382022471910112
aF0.016853932584269662
aF0.0056179775280898875
aF0.8707865168539326
aF0.5617977528089888
aF0.033707865168539325
aI0
aI0
aF0.056179775280898875
aF1.747191011235955
aF0.42696629213483145
aF0.05056179775280899
aI0
aI0
aF0.0449438202247191
aF0.5056179775280899
aF0.21348314606741572
aF0.6348314606741573
aF0.0056179775280898875
aI0
aF0.07865168539325842
aI0
aF0.19662921348314608
aF0.011235955056179775
aF0.3089887640449438
aF0.7078651685393258
aF0.12921348314606743
aF0.1797752808988764
aF0.15730337078651685
aF0.12359550561797752
aF0.011235955056179775
aF0.016853932584269662
aI0
aF0.028089887640449437
a.