(lp0
F0.509090909090909
aF0.12727272727272726
aF2.2181818181818183
aF0.05454545454545454
aI0
aF1.9090909090909092
aF1.0363636363636364
aF0.01818181818181818
aI0
aI0
aF0.09090909090909091
aF3.5272727272727273
aF0.41818181818181815
aF0.01818181818181818
aI0
aI0
aF0.09090909090909091
aF0.9272727272727272
aF0.509090909090909
aF0.9636363636363636
aI0
aF0.01818181818181818
aF0.10909090909090909
aI0
aF0.2909090909090909
aI0
aF0.45454545454545453
aF1.690909090909091
aF0.5636363636363636
aF0.4
aF0.09090909090909091
aF0.03636363636363636
aF0.09090909090909091
aF0.01818181818181818
aI0
aF0.01818181818181818
a.