(lp0
F0.23346303501945526
aF0.058365758754863814
aF0.8365758754863813
aF0.011673151750972763
aI0
aF0.7120622568093385
aF0.41245136186770426
aF0.011673151750972763
aF0.007782101167315175
aI0
aF0.14396887159533073
aF1.4785992217898833
aF0.28793774319066145
aF0.042801556420233464
aI0
aF0.011673151750972763
aF0.027237354085603113
aF0.8365758754863813
aF0.14396887159533073
aF0.4708171206225681
aI0
aI0
aF0.058365758754863814
aI0
aF0.13618677042801555
aF0.027237354085603113
aF0.46303501945525294
aF0.6498054474708171
aF0.10894941634241245
aF0.22568093385214008
aF0.26848249027237353
aF0.1828793774319066
aI0
aF0.07782101167315175
aI0
aF0.023346303501945526
a.