(lp0
F0.40752351097178685
aF0.08463949843260188
aF1.3761755485893417
aF0.03761755485893417
aF0.0219435736677116
aF1.3887147335423198
aF0.786833855799373
aF0.02821316614420063
aF0.018808777429467086
aI0
aF0.18808777429467086
aF2.595611285266458
aF0.438871473354232
aF0.034482758620689655
aI0
aF0.012539184952978056
aF0.012539184952978056
aF0.6394984326018809
aF0.2852664576802508
aF0.9090909090909091
aF0.0219435736677116
aI0
aF0.13166144200626959
aI0
aF0.3103448275862069
aF0.003134796238244514
aF0.5830721003134797
aF1.1912225705329154
aF0.26959247648902823
aF0.36363636363636365
aF0.13793103448275862
aF0.09717868338557993
aF0.01567398119122257
aF0.0877742946708464
aI0
aF0.05642633228840126
a.