(lp0
F0.3139628732849072
aF0.06698950766747377
aF0.8490718321226796
aF0.01694915254237288
aF0.004035512510088781
aF0.837772397094431
aF0.5286521388216303
aF0.02824858757062147
aF0.01533494753833737
aI0
aF0.10250201775625505
aF1.7352703793381759
aF0.35512510088781274
aI0
aI0
aF0.004842615012106538
aF0.03066989507667474
aF0.744955609362389
aF0.192090395480226
aF0.5262308313155771
aF0.00887812752219532
aF0.002421307506053269
aF0.07263922518159806
aI0
aF0.19693301049233253
aF0.016142050040355124
aF0.3470540758676352
aF0.9015334947538337
aF0.17271993543179984
aF0.17271993543179984
aF0.17433414043583534
aF0.08958837772397095
aF0.018563357546408393
aF0.04439063761097659
aI0
aF0.05649717514124294
a.