(lp0
F0.3783132530120482
aF0.18313253012048192
aF1.5903614457831325
aF0.033734939759036145
aF0.024096385542168676
aF1.4144578313253011
aF1.2578313253012048
aF0.021686746987951807
aF0.016867469879518072
aF0.004819277108433735
aF0.19759036144578312
aF4.175903614457831
aF0.46987951807228917
aF0.05542168674698795
aI0
aF0.007228915662650603
aF0.4674698795180723
aF0.8746987951807229
aF0.20722891566265061
aF0.8867469879518072
aF0.007228915662650603
aF0.0024096385542168677
aF0.163855421686747
aI0
aF0.2385542168674699
aF0.043373493975903614
aF0.6746987951807228
aF0.8337349397590361
aF0.12289156626506025
aF0.2746987951807229
aF0.38072289156626504
aF0.3228915662650602
aF0.05301204819277108
aF0.05301204819277108
aI0
aF0.12289156626506025
a.