(lp0
F0.9540740740740741
aF0.14814814814814814
aF2.122962962962963
aF0.028148148148148148
aF0.017777777777777778
aF2.3422222222222224
aF1.6237037037037036
aF0.03259259259259259
aF0.03259259259259259
aI0
aF0.3274074074074074
aF3.3451851851851853
aF1.0696296296296297
aF0.016296296296296295
aI0
aF0.028148148148148148
aF0.04888888888888889
aF1.2977777777777777
aF0.48148148148148145
aF1.2148148148148148
aF0.02666666666666667
aF0.011851851851851851
aF0.1259259259259259
aI0
aF0.4666666666666667
aF0.02962962962962963
aF0.8207407407407408
aF1.2059259259259258
aF0.4148148148148148
aF0.6888888888888889
aF0.44
aF0.3496296296296296
aF0.08888888888888889
aF0.09777777777777778
aF0.007407407407407408
aF0.11407407407407408
a.