(lp0
F0.9230769230769231
aF0.08391608391608392
aF1.6223776223776223
aF0.027972027972027972
aF0.006993006993006993
aF1.6293706293706294
aF1.034965034965035
aF0.013986013986013986
aF0.013986013986013986
aI0
aF0.2727272727272727
aF2.006993006993007
aF0.6503496503496503
aI0
aI0
aF0.027972027972027972
aF0.027972027972027972
aF1.7762237762237763
aF0.46853146853146854
aF1.013986013986014
aI0
aF0.006993006993006993
aF0.06293706293706294
aI0
aF0.4195804195804196
aF0.02097902097902098
aF0.6503496503496503
aF1.3706293706293706
aF0.1958041958041958
aF0.20279720279720279
aF0.34965034965034963
aF0.3776223776223776
aF0.055944055944055944
aF0.1888111888111888
aI0
aF0.1258741258741259
a.