(lp0
F0.47024952015355087
aF0.11708253358925144
aF1.199616122840691
aF0.026871401151631478
aF0.007677543186180422
aF1.238003838771593
aF0.7696737044145874
aF0.026871401151631478
aF0.04030710172744722
aF0.0019193857965451055
aF0.1420345489443378
aF2.2053742802303264
aF0.4894433781190019
aF0.011516314779270634
aI0
aF0.003838771593090211
aF0.05950095969289827
aF1.1842610364683301
aF0.3531669865642994
aF0.8061420345489443
aF0.019193857965451054
aI0
aF0.09788867562380038
aI0
aF0.28790786948176583
aF0.009596928982725527
aF0.45873320537428025
aF1.5259117082533589
aF0.16506717850287908
aF0.3474088291746641
aF0.09980806142034548
aF0.06333973128598848
aF0.07293666026871401
aF0.0690978886756238
aF0.003838771593090211
aF0.1017274472168906
a.