(lp0
F0.4646840148698885
aF0.241635687732342
aF1.970260223048327
aF0.01486988847583643
aF0.8921933085501859
aF1.828996282527881
aF1.762081784386617
aF0.026022304832713755
aF0.007434944237918215
aI0
aF0.16356877323420074
aF5.070631970260223
aF0.6877323420074349
aF0.08921933085501858
aI0
aF0.007434944237918215
aF0.9033457249070632
aF2.1449814126394053
aF0.4795539033457249
aF1.1933085501858736
aI0
aF0.0037174721189591076
aF0.17472118959107807
aI0
aF0.6096654275092936
aF0.05204460966542751
aF1.211895910780669
aF1.6133828996282529
aF0.08921933085501858
aF0.8066914498141264
aF1.2565055762081785
aF0.3420074349442379
aF0.10037174721189591
aF0.09293680297397769
aI0
aF0.23048327137546468
a.