(lp0
F0.5129136741304041
aF0.1908745247148289
aF2.025855513307985
aF0.049204337417265175
aF0.04064216307562315
aF2.01723700887199
aF1.051063230530911
aF0.03658639628221377
aF0.012589776087874947
aF0.0007886213209407126
aF0.16273764258555132
aF3.095958315730179
aF0.7547669342346148
aF0.008027038445289396
aF5.633009435290804e-05
aF0.02312350373186875
aF0.0452049007182087
aF0.9720884382481341
aF0.3585410505562597
aF0.753471342064498
aF0.027207435572454582
aF0.009125475285171103
aF0.058386142796789185
aI0
aF0.38343895226024505
aF0.013744543022109562
aF0.5380932263061541
aF1.0777636952541896
aF0.2416561047739755
aF0.5255034502182792
aF0.2589776087874947
aF0.3469652161667371
aF0.1626249823968455
aF0.13186875088015773
aF0.005351358963526264
aF0.07714406421630757
a.