(lp0
F2.1209016393442623
aF0.5317622950819673
aF4.0252732240437155
aF0.08572404371584699
aF0.045423497267759565
aF5.287909836065574
aF2.532103825136612
aF0.11782786885245902
aF0.08367486338797814
aF0.006489071038251366
aF0.6458333333333334
aF6.608948087431694
aF1.9877049180327868
aF0.07308743169398907
aF0.00034153005464480874
aF0.08401639344262295
aF0.09153005464480875
aF2.7418032786885247
aF1.2991803278688525
aF2.3985655737704916
aF0.07547814207650273
aF0.03961748633879782
aF0.2032103825136612
aF0.0047814207650273225
aF1.3971994535519126
aF0.02185792349726776
aF1.9156420765027322
aF2.851775956284153
aF0.8627049180327869
aF1.1072404371584699
aF0.5611338797814208
aF0.3135245901639344
aF0.37363387978142076
aF0.273224043715847
aF0.01366120218579235
aF0.3244535519125683
a.