(lp0
F1.5555555555555556
aF0.4444444444444444
aF4.666666666666667
aI0
aI0
aF4.888888888888889
aF1.8888888888888888
aF0.1111111111111111
aF0.1111111111111111
aI0
aF0.3333333333333333
aF9.666666666666666
aF1.5555555555555556
aI0
aI0
aI0
aF0.1111111111111111
aF0.2222222222222222
aF0.2222222222222222
aF1.2222222222222223
aI0
aI0
aI0
aF0.4444444444444444
aF0.6666666666666666
aI0
aF1.0
aF0.2222222222222222
aF0.2222222222222222
aF2.2222222222222223
aF0.2222222222222222
aF1.7777777777777777
aF0.3333333333333333
aF0.1111111111111111
aI0
aI0
a.