(lp0
F0.7873848334514528
aF0.1559177888022679
aF2.7902197023387667
aF0.09496810772501772
aF0.007087172218284904
aF3.0843373493975905
aF1.3476257973068746
aF0.0783132530120482
aF0.050318922749822824
aI0
aF0.5942593905031892
aF3.6800141743444366
aF0.9379872430900071
aF0.004252303330970942
aF0.00035435861091424523
aF0.04642097802976612
aF0.06697377746279234
aF1.3763288447909283
aF0.28809355067328135
aF1.5931963146704464
aF0.051381998582565556
aF0.020198440822111977
aF0.11374911410347271
aI0
aF0.7338766832034018
aF0.0031892274982282067
aF1.400425230333097
aF1.4053862508858965
aF0.5007087172218285
aF0.8146704464918497
aF0.4131821403260099
aF0.37030474840538624
aF0.12331679659815734
aF0.11162296243798725
aF0.002126151665485471
aF0.2264351523742027
a.