(lp0
F0.723824575266693
aF0.1774002370604504
aF1.3370209403397866
aF0.02765705254839984
aF0.035954168312919796
aF1.5073093638877915
aF1.2022915843540103
aF0.02884235480047412
aF0.03792967206637693
aF0.001185302252074279
aF0.2793362307388384
aF2.6910312129593046
aF0.7269853812722245
aF0.01619913077834848
aI0
aF0.026866851047016988
aF0.04622678783089688
aF1.0406953773212169
aF0.26037139470564996
aF1.1133939154484394
aF0.015804030027657054
aF0.01619913077834848
aF0.08218095614381667
aF0.0007902015013828526
aF0.4306598182536547
aF0.020150138285262742
aF0.9379691821414461
aF0.5645989727380482
aF0.2884235480047412
aF0.32240221256420387
aF0.6985381272224417
aF0.42591860924535757
aF0.03871987356775978
aF0.06795732911892532
aI0
aF0.09403397866455947
a.