(lp0
F0.3357657657657658
aF0.05558558558558559
aF0.8010810810810811
aF0.03153153153153153
aF0.012342342342342343
aF1.103963963963964
aF0.6954954954954955
aF0.015135135135135135
aF0.015405405405405406
aF0.0007207207207207207
aF0.19837837837837838
aF1.731891891891892
aF0.33126126126126126
aF0.019189189189189187
aI0
aF0.012522522522522523
aF0.0363063063063063
aF1.1414414414414416
aF0.3582882882882883
aF0.892972972972973
aF0.01072072072072072
aF0.006036036036036036
aF0.046936936936936936
aF0.0002702702702702703
aF0.2945945945945946
aF0.05018018018018018
aF0.5736036036036036
aF0.2582882882882883
aF0.20513513513513512
aF0.24576576576576575
aF0.3248648648648649
aF0.7292792792792793
aF0.02954954954954955
aF0.09306306306306306
aF0.0012612612612612612
aF0.10387387387387387
a.