(lp0
F1.2326530612244897
aF0.2
aF3.3224489795918366
aF0.05714285714285714
aF0.02040816326530612
aF4.404081632653061
aF2.183673469387755
aF0.17959183673469387
aF0.1510204081632653
aI0
aF0.42448979591836733
aF5.326530612244898
aF1.3551020408163266
aF0.0326530612244898
aI0
aF0.05714285714285714
aF0.15510204081632653
aF1.7387755102040816
aF0.8285714285714286
aF2.130612244897959
aF0.09387755102040816
aF0.02040816326530612
aF0.09795918367346938
aI0
aF0.6
aI0
aF0.9183673469387755
aF0.5510204081632653
aF0.2653061224489796
aF0.673469387755102
aF0.5510204081632653
aF1.6040816326530611
aF0.3795918367346939
aF0.17142857142857143
aF0.0163265306122449
aF0.1673469387755102
a.