(lp0
F0.4900662251655629
aF0.052980132450331126
aF1.1589403973509933
aF0.039735099337748346
aF0.013245033112582781
aF1.2450331125827814
aF0.7086092715231788
aF0.06622516556291391
aI0
aF0.006622516556291391
aF0.23178807947019867
aF1.7682119205298013
aF0.7880794701986755
aF0.033112582781456956
aI0
aF0.052980132450331126
aF0.026490066225165563
aF1.3311258278145695
aF0.0728476821192053
aF1.1390728476821192
aF0.046357615894039736
aI0
aF0.09933774834437085
aI0
aF0.3443708609271523
aF0.033112582781456956
aF0.7748344370860927
aF0.7549668874172185
aF0.2185430463576159
aF0.2185430463576159
aF0.48344370860927155
aF0.423841059602649
aF0.046357615894039736
aF0.16556291390728478
aI0
aF0.07947019867549669
a.