(lp0
F0.7532467532467533
aF0.2597402597402597
aF1.5324675324675325
aF0.05194805194805195
aI0
aF2.1948051948051948
aF1.3246753246753247
aF0.11688311688311688
aF0.025974025974025976
aI0
aF0.4675324675324675
aF2.2857142857142856
aF1.3766233766233766
aF0.1038961038961039
aI0
aF0.03896103896103896
aF0.012987012987012988
aF1.7532467532467533
aF0.44155844155844154
aF1.0129870129870129
aF0.025974025974025976
aI0
aF0.07792207792207792
aI0
aF0.4675324675324675
aI0
aF0.922077922077922
aF1.0909090909090908
aF0.23376623376623376
aF0.7402597402597403
aF0.4805194805194805
aF0.18181818181818182
aF0.12987012987012986
aF0.03896103896103896
aI0
aF0.11688311688311688
a.