(lp0
F0.4022346368715084
aF0.0670391061452514
aF1.011173184357542
aF0.055865921787709494
aF0.0111731843575419
aF1.100558659217877
aF0.6312849162011173
aF0.0223463687150838
aF0.0111731843575419
aI0
aF0.19553072625698323
aF2.022346368715084
aF0.40782122905027934
aF0.0446927374301676
aI0
aF0.00558659217877095
aF0.027932960893854747
aF1.100558659217877
aF0.1787709497206704
aF0.7430167597765364
aF0.027932960893854747
aI0
aF0.08379888268156424
aI0
aF0.26256983240223464
aF0.0335195530726257
aF0.5977653631284916
aF1.1508379888268156
aF0.18994413407821228
aF0.18435754189944134
aF0.24022346368715083
aF0.12849162011173185
aF0.05027932960893855
aF0.0782122905027933
aI0
aF0.07262569832402235
a.