(lp0
F0.3644067796610169
aF0.1059322033898305
aF1.2796610169491525
aF0.029661016949152543
aF0.00423728813559322
aF1.1101694915254237
aF0.5508474576271186
aF0.0211864406779661
aF0.00847457627118644
aI0
aF0.2033898305084746
aF1.944915254237288
aF0.3686440677966102
aF0.0423728813559322
aI0
aI0
aF0.03389830508474576
aF0.809322033898305
aF0.1483050847457627
aF0.7288135593220338
aF0.01694915254237288
aI0
aF0.1059322033898305
aI0
aF0.3347457627118644
aF0.012711864406779662
aF0.5889830508474576
aF0.864406779661017
aF0.19915254237288135
aF0.2076271186440678
aF0.21610169491525424
aF0.11016949152542373
aF0.0211864406779661
aF0.05508474576271186
aI0
aF0.09745762711864407
a.