(lp0
F0.4484536082474227
aF0.061855670103092786
aF1.422680412371134
aF0.030927835051546393
aF0.010309278350515464
aF1.5670103092783505
aF0.9690721649484536
aF0.04639175257731959
aF0.020618556701030927
aF0.005154639175257732
aF0.19072164948453607
aF2.7731958762886597
aF0.4690721649484536
aF0.04639175257731959
aI0
aF0.010309278350515464
aF0.0979381443298969
aF0.7577319587628866
aF0.34536082474226804
aF0.7577319587628866
aI0
aF0.020618556701030927
aF0.07731958762886598
aI0
aF0.30927835051546393
aF0.005154639175257732
aF0.520618556701031
aF1.0154639175257731
aF0.23711340206185566
aF0.41237113402061853
aF0.26804123711340205
aF0.15979381443298968
aF0.04639175257731959
aF0.07731958762886598
aF0.005154639175257732
aF0.05670103092783505
a.