(lp0
F0.3211009174311927
aF0.19724770642201836
aF1.036697247706422
aF0.05045871559633028
aF0.06880733944954129
aF1.1788990825688073
aF1.0779816513761469
aF0.027522935779816515
aF0.0045871559633027525
aI0
aF0.25688073394495414
aF2.3944954128440368
aF0.42201834862385323
aF0.13761467889908258
aI0
aI0
aF0.04128440366972477
aF0.6238532110091743
aF0.3394495412844037
aF0.8577981651376146
aF0.022935779816513763
aF0.03211009174311927
aF0.03211009174311927
aI0
aF0.24311926605504589
aF0.045871559633027525
aF0.573394495412844
aF0.5779816513761468
aF0.14220183486238533
aF0.24311926605504589
aF0.42660550458715596
aF0.27522935779816515
aF0.05504587155963303
aF0.0871559633027523
aF0.0045871559633027525
aF0.05963302752293578
a.