(lp0
F0.7033096926713948
aF0.13829787234042554
aF1.942080378250591
aF0.06855791962174941
aF0.010638297872340425
aF2.0390070921985815
aF1.0283687943262412
aF0.034278959810874705
aF0.01773049645390071
aF0.0035460992907801418
aF0.16666666666666666
aF3.0106382978723403
aF0.6725768321513003
aF0.004728132387706856
aI0
aF0.016548463356973995
aF0.04491725768321513
aF1.016548463356974
aF0.32978723404255317
aF0.91725768321513
aF0.016548463356973995
aI0
aF0.13120567375886524
aI0
aF0.35815602836879434
aF0.01773049645390071
aF0.5614657210401891
aF1.3829787234042554
aF0.2860520094562648
aF0.39952718676122934
aF0.18321513002364065
aF0.14066193853427897
aF0.054373522458628844
aF0.06028368794326241
aF0.001182033096926714
aF0.07565011820330969
a.