(lp0
F0.7311944504660741
aF0.12659874268371993
aF1.361370041187947
aF0.04790808584435292
aF0.009104704097116844
aF2.0034684587036637
aF1.118794710600477
aF0.05007587253414264
aF0.03295035768480382
aF0.00021677866897897247
aF0.32083243008887924
aF2.54216345111641
aF0.6988944287882073
aF0.002384565358768697
aI0
aF0.021677866897897247
aF0.06394970734879687
aF1.5135486668111857
aF0.4378929113375244
aF1.4459137220897464
aF0.03511814437459354
aF0.015608064166486017
aF0.09820073704747453
aI0
aF0.5022761760242792
aF0.022544981573813138
aF0.8625623238673314
aF1.6119661825276392
aF0.3990895295902883
aF0.53587686971602
aF0.17667461521786257
aF0.12291350531107739
aF0.06676783004552352
aF0.12638196401474094
aF0.004985909386516367
aF0.12941686538044656
a.