(lp0
F0.669935445720199
aF0.2675799536786084
aF1.4431577391218646
aF0.0358251613856995
aF0.01680382397871187
aF1.9886660424777016
aF1.0724387719903414
aF0.045976445079584094
aF0.02779283496772286
aF0.0016261765140688908
aF0.28236337653378013
aF2.909870398659636
aF0.5577292662494456
aF0.01749371704528655
aF9.855615236781156e-05
aF0.01695165820726359
aF0.09490957473020253
aF1.2121913960478983
aF0.50416399743754
aF1.0613019267727788
aF0.027989947272458484
aF0.009215000246390381
aF0.09826048391070813
aF4.927807618390578e-05
aF0.4281772039619573
aF0.030995909919676736
aF0.8180653427290199
aF0.8696102104173853
aF0.38259498349184445
aF0.47011284679446114
aF0.4185187010299118
aF0.29024786872320507
aF0.06834869166707731
aF0.09407184743507613
aF0.0029566845710343468
aF0.09352978859705317
a.