(lp0
F0.768341680885024
aF0.25081182233474597
aF1.7164400902636359
aF0.04144421817381254
aF0.017282183939677474
aF2.3855468105014035
aF1.3318289394022786
aF0.05003027134129561
aF0.03269304859926248
aF0.0011007760471132147
aF0.3022731025372888
aF3.2558203533491112
aF0.702790467279432
aF0.019153503219769937
aF5.503880235566074e-05
aF0.025648081897737905
aF0.09207991634102042
aF1.4053607793494414
aF0.5792283559909737
aF1.2131102427211184
aF0.037151191590071
aF0.01034729484286422
aF0.0963179041224063
aF0.00011007760471132149
aF0.5366283229676923
aF0.03450932907699929
aF0.8658704386592547
aF1.1947272827343276
aF0.39782046342671584
aF0.5674500522868622
aF0.38064835709174966
aF0.222907149540426
aF0.09642798172711761
aF0.12141559799658759
aF0.005393802630854753
aF0.11558148494688755
a.