(lp0
F1.112162538268856
aF0.13581964931811857
aF3.4002226551628167
aF0.0921235736153632
aF0.027831895352073477
aF4.118842193153354
aF2.1441692179237406
aF0.08600055663790704
aF0.052880601168939605
aF0.0019482326746451434
aF0.40801558586139713
aF5.756470915669357
aF1.3389924853882549
aF0.027831895352073477
aF0.0008349568605622043
aF0.03506818814361258
aF0.09017534094071807
aF1.4158085165599776
aF0.8970219871973282
aF1.4600612301697746
aF0.07152797105482883
aF0.02922349011967715
aF0.050654049540773724
aF0.0008349568605622043
aF0.7021987197328138
aF0.015585861397161147
aF1.01892568883941
aF1.6969106596159198
aF0.46562760924018926
aF0.8867241859170609
aF0.296966323406624
aF0.3209017534094072
aF0.2680211522404676
aF0.1706095185082104
aF0.014194266629557473
aF0.13080990815474533
a.