(lp0
F0.6586250858095518
aF0.08610375600666863
aF1.7467882710601157
aF0.05217220751201334
aF0.014023732470334413
aF2.241247425713445
aF0.9138962439933314
aF0.04619005589879376
aF0.02824360105913504
aF9.806805923310778e-05
aF0.3781504364028636
aF2.8495635971364126
aF0.8449543983524566
aF0.01019907816024321
aI0
aF0.023144061979013437
aF0.053054820045111306
aF1.2014317936648033
aF0.5694812199666569
aF0.9674414043346082
aF0.03510836520545258
aF0.009806805923310777
aF0.060507992546827497
aI0
aF0.47102088849661666
aF0.024026674512111407
aF0.892615475139747
aF1.004511130724723
aF0.2657644405217221
aF0.5193684416985388
aF0.40031381778954594
aF0.2509561635775228
aF0.10512895949789154
aF0.12160439344905365
aF0.007649308620182407
aF0.11787780719819554
a.