(lp0
F0.3959731543624161
aF0.10738255033557047
aF1.2684563758389262
aF0.020134228187919462
aF0.006711409395973154
aF1.4899328859060403
aF0.8322147651006712
aF0.006711409395973154
aF0.013422818791946308
aI0
aF0.2348993288590604
aF2.208053691275168
aF0.5973154362416108
aF0.087248322147651
aI0
aI0
aF0.06711409395973154
aF1.080536912751678
aF0.35570469798657717
aF0.7181208053691275
aF0.013422818791946308
aF0.013422818791946308
aF0.053691275167785234
aI0
aF0.4161073825503356
aF0.020134228187919462
aF0.7583892617449665
aF1.1006711409395973
aF0.2348993288590604
aF0.31543624161073824
aF0.35570469798657717
aF0.10738255033557047
aF0.026845637583892617
aF0.08053691275167785
aI0
aF0.08053691275167785
a.