(lp0
F0.2867132867132867
aF0.045454545454545456
aF0.8006993006993007
aF0.02097902097902098
aF0.0034965034965034965
aF0.8181818181818182
aF0.40559440559440557
aF0.0034965034965034965
aF0.01048951048951049
aF0.0034965034965034965
aF0.13986013986013987
aF1.416083916083916
aF0.1993006993006993
aF0.02097902097902098
aI0
aF0.006993006993006993
aF0.013986013986013986
aF1.06993006993007
aF0.22377622377622378
aF0.7237762237762237
aI0
aF0.0034965034965034965
aF0.15734265734265734
aI0
aF0.2097902097902098
aF0.0034965034965034965
aF0.43356643356643354
aF0.8706293706293706
aF0.2202797202797203
aF0.15384615384615385
aF0.22727272727272727
aF0.1258741258741259
aF0.006993006993006993
aF0.06643356643356643
aI0
aF0.045454545454545456
a.