(lp0
F0.5898876404494382
aF0.25280898876404495
aF2.6235955056179776
aF0.016853932584269662
aF0.0056179775280898875
aF2.7865168539325844
aF1.7921348314606742
aF0.03932584269662921
aF0.02247191011235955
aI0
aF0.2640449438202247
aF4.073033707865169
aF0.9438202247191011
aF0.06741573033707865
aI0
aF0.028089887640449437
aF0.06179775280898876
aF0.8707865168539326
aF0.5280898876404494
aF1.1123595505617978
aF0.0449438202247191
aF0.02247191011235955
aF0.08426966292134831
aI0
aF0.4943820224719101
aI0
aF0.6179775280898876
aF1.3707865168539326
aF0.34269662921348315
aF0.7865168539325843
aF0.2808988764044944
aF0.1404494382022472
aF0.1404494382022472
aF0.0898876404494382
aF0.011235955056179775
aF0.06179775280898876
a.