(lp0
F0.46206896551724136
aF0.1206896551724138
aF1.0
aF0.013793103448275862
aI0
aF1.1275862068965516
aF0.896551724137931
aF0.013793103448275862
aF0.010344827586206896
aI0
aF0.20689655172413793
aF1.8586206896551725
aF0.49310344827586206
aF0.006896551724137931
aI0
aF0.006896551724137931
aF0.05172413793103448
aF0.9448275862068966
aF0.24482758620689654
aF0.996551724137931
aF0.017241379310344827
aF0.010344827586206896
aF0.05172413793103448
aI0
aF0.3448275862068966
aF0.017241379310344827
aF0.7241379310344828
aF0.8517241379310345
aF0.19655172413793104
aF0.33793103448275863
aF0.31724137931034485
aF0.2206896551724138
aF0.02413793103448276
aF0.08275862068965517
aF0.0034482758620689655
aF0.10689655172413794
a.