(lp0
F0.5686274509803921
aF0.12254901960784313
aF1.2009803921568627
aF0.024509803921568627
aF0.004901960784313725
aF1.2303921568627452
aF0.8872549019607843
aF0.024509803921568627
aF0.0196078431372549
aI0
aF0.19607843137254902
aF2.0637254901960786
aF0.6470588235294118
aF0.07352941176470588
aI0
aF0.0196078431372549
aF0.058823529411764705
aF0.9264705882352942
aF0.24019607843137256
aF0.8529411764705882
aF0.014705882352941176
aI0
aF0.1323529411764706
aI0
aF0.27941176470588236
aF0.004901960784313725
aF0.5
aF1.0196078431372548
aF0.30392156862745096
aF0.2696078431372549
aF0.19607843137254902
aF0.14705882352941177
aF0.0196078431372549
aF0.06372549019607843
aI0
aF0.08823529411764706
a.