(lp0
F0.46226415094339623
aF0.018867924528301886
aF1.2358490566037736
aF0.02830188679245283
aF0.018867924528301886
aF1.490566037735849
aF0.6886792452830188
aF0.03773584905660377
aF0.018867924528301886
aI0
aF0.3490566037735849
aF1.971698113207547
aF0.6981132075471698
aF0.009433962264150943
aI0
aF0.018867924528301886
aF0.018867924528301886
aF1.0377358490566038
aF0.330188679245283
aF0.7547169811320755
aI0
aI0
aF0.08490566037735849
aI0
aF0.4056603773584906
aF0.009433962264150943
aF0.8962264150943396
aF0.8867924528301887
aF0.18867924528301888
aF0.32075471698113206
aF0.5
aF0.18867924528301888
aF0.009433962264150943
aF0.11320754716981132
aI0
aF0.08490566037735849
a.