(lp0
F0.34375
aF0.08482142857142858
aF1.3035714285714286
aF0.013392857142857142
aF0.017857142857142856
aF1.4910714285714286
aF0.9553571428571429
aF0.0625
aF0.026785714285714284
aI0
aF0.33035714285714285
aF2.361607142857143
aF0.6785714285714286
aF0.013392857142857142
aI0
aF0.013392857142857142
aF0.12946428571428573
aF0.9419642857142857
aF0.5446428571428571
aF0.8883928571428571
aF0.004464285714285714
aI0
aF0.0625
aI0
aF0.40625
aI0
aF0.6607142857142857
aF0.7232142857142857
aF0.23660714285714285
aF0.3125
aF0.3080357142857143
aF0.36607142857142855
aF0.05357142857142857
aF0.0625
aF0.004464285714285714
aF0.05803571428571429
a.