(lp0
F0.6162790697674418
aF0.09302325581395349
aF2.186046511627907
aF0.11337209302325581
aI0
aF2.421511627906977
aF1.1366279069767442
aF0.02616279069767442
aF0.020348837209302327
aI0
aF0.15988372093023256
aF3.491279069767442
aF0.8284883720930233
aF0.00872093023255814
aI0
aF0.005813953488372093
aF0.1308139534883721
aF0.9622093023255814
aF0.5319767441860465
aF0.9883720930232558
aF0.029069767441860465
aI0
aF0.10174418604651163
aI0
aF0.40406976744186046
aF0.011627906976744186
aF0.4680232558139535
aF1.572674418604651
aF0.26453488372093026
aF0.5494186046511628
aF0.08139534883720931
aF0.15988372093023256
aF0.1511627906976744
aF0.07848837209302326
aF0.005813953488372093
aF0.06976744186046512
a.