(lp0
F0.5263157894736842
aF0.1513157894736842
aF1.8486842105263157
aF0.013157894736842105
aI0
aF1.5
aF1.0723684210526316
aF0.02631578947368421
aF0.013157894736842105
aI0
aF0.17105263157894737
aF3.1776315789473686
aF0.5394736842105263
aF0.125
aI0
aF0.013157894736842105
aF0.07894736842105263
aF0.8157894736842105
aF0.3618421052631579
aF0.6907894736842105
aF0.02631578947368421
aF0.006578947368421052
aF0.05921052631578947
aI0
aF0.32894736842105265
aF0.006578947368421052
aF0.46710526315789475
aF1.2894736842105263
aF0.2565789473684211
aF0.5
aF0.16447368421052633
aF0.19736842105263158
aF0.046052631578947366
aF0.06578947368421052
aF0.006578947368421052
aF0.046052631578947366
a.