(lp0
F0.6666666666666666
aF0.10215053763440861
aF1.5
aF0.03225806451612903
aI0
aF1.881720430107527
aF0.8709677419354839
aF0.026881720430107527
aF0.021505376344086023
aI0
aF0.24193548387096775
aF2.8333333333333335
aF0.553763440860215
aI0
aI0
aF0.016129032258064516
aF0.053763440860215055
aF1.0483870967741935
aF0.4838709677419355
aF1.0591397849462365
aF0.010752688172043012
aI0
aF0.15591397849462366
aI0
aF0.3279569892473118
aI0
aF0.543010752688172
aF1.381720430107527
aF0.27419354838709675
aF0.42473118279569894
aF0.10752688172043011
aF0.10752688172043011
aF0.10215053763440861
aF0.13440860215053763
aI0
aF0.0967741935483871
a.