(lp0
F0.6199186991869918
aF0.08943089430894309
aF1.4776422764227641
aF0.018292682926829267
aF0.008130081300813009
aF1.5914634146341464
aF0.9085365853658537
aF0.028455284552845527
aF0.012195121951219513
aI0
aF0.21138211382113822
aF2.361788617886179
aF0.7012195121951219
aF0.018292682926829267
aI0
aF0.018292682926829267
aF0.06910569105691057
aF0.9898373983739838
aF0.44715447154471544
aF0.7967479674796748
aF0.016260162601626018
aI0
aF0.11585365853658537
aI0
aF0.27439024390243905
aF0.022357723577235773
aF0.5670731707317073
aF1.2357723577235773
aF0.2601626016260163
aF0.43902439024390244
aF0.15853658536585366
aF0.1483739837398374
aF0.08943089430894309
aF0.06707317073170732
aF0.0040650406504065045
aF0.06300813008130081
a.