(lp0
F0.4406741823864271
aF0.057930572608550064
aF1.3791717825650185
aF0.03315102131934368
aF0.1768054470364996
aF1.7888157160397367
aF0.8314544033932358
aF0.035383413327380285
aF0.022882018082375267
aI0
aF0.2520370577073334
aF2.397923875432526
aF0.49559102578412767
aF0.00792499162852997
aF0.00011161960040183056
aF0.01797075566469472
aF0.044536220560330395
aF1.2111842839602633
aF0.40674182386427055
aF0.8771068199575845
aF0.024891170889608214
aF0.007590132827324478
aF0.0442013617591249
aI0
aF0.40741154146668157
aF0.022323920080366114
aF0.6757450608326823
aF0.9333630985601071
aF0.22402053800647392
aF0.4459203036053131
aF0.30181939948654984
aF0.1983480299140529
aF0.10927558879339212
aF0.10436432637571158
aF0.005469360419689697
aF0.06786471704431297
a.