(lp0
F0.9893617021276596
aF0.16489361702127658
aF2.75
aF0.0851063829787234
aF0.02127659574468085
aF2.7074468085106385
aF1.3138297872340425
aF0.047872340425531915
aF0.010638297872340425
aI0
aF0.12234042553191489
aF3.9308510638297873
aF0.7606382978723404
aI0
aI0
aF0.015957446808510637
aF0.015957446808510637
aF0.8351063829787234
aF0.5957446808510638
aF1.1063829787234043
aF0.0425531914893617
aI0
aF0.11170212765957446
aI0
aF0.4148936170212766
aF0.010638297872340425
aF0.5212765957446809
aF1.7446808510638299
aF0.39361702127659576
aF0.43617021276595747
aF0.2553191489361702
aF0.18617021276595744
aF0.11170212765957446
aF0.06382978723404255
aF0.010638297872340425
aF0.05319148936170213
a.