(lp0
F0.6065573770491803
aF0.2459016393442623
aF1.459016393442623
aF0.04918032786885246
aI0
aF1.4098360655737705
aF0.9344262295081968
aF0.03278688524590164
aF0.03278688524590164
aI0
aF0.39344262295081966
aF2.278688524590164
aF0.9016393442622951
aF0.03278688524590164
aI0
aI0
aF0.03278688524590164
aF0.819672131147541
aF0.2786885245901639
aF1.0163934426229508
aF0.04918032786885246
aI0
aF0.03278688524590164
aI0
aF0.3442622950819672
aF0.01639344262295082
aF0.8688524590163934
aF0.7868852459016393
aF0.21311475409836064
aF0.2459016393442623
aF0.32786885245901637
aF0.13114754098360656
aF0.13114754098360656
aF0.03278688524590164
aI0
aF0.09836065573770492
a.