(lp0
F0.6440677966101694
aF0.4915254237288136
aF1.152542372881356
aF0.01694915254237288
aI0
aF1.3220338983050848
aF0.9152542372881356
aF0.01694915254237288
aI0
aI0
aF0.23728813559322035
aF2.1016949152542375
aF0.7288135593220338
aF0.01694915254237288
aI0
aI0
aF0.01694915254237288
aF0.8983050847457628
aF0.2711864406779661
aF0.8305084745762712
aF0.01694915254237288
aI0
aF0.05084745762711865
aI0
aF0.22033898305084745
aI0
aF0.423728813559322
aF0.864406779661017
aF0.22033898305084745
aF0.288135593220339
aF0.1016949152542373
aF0.11864406779661017
aF0.03389830508474576
aF0.03389830508474576
aI0
aF0.03389830508474576
a.