(lp0
F0.2722222222222222
aF0.07222222222222222
aF1.3611111111111112
aF0.044444444444444446
aI0
aF1.1888888888888889
aF0.8888888888888888
aF0.022222222222222223
aF0.03333333333333333
aI0
aF0.1388888888888889
aF2.588888888888889
aF0.5111111111111111
aF0.027777777777777776
aI0
aF0.005555555555555556
aF0.12222222222222222
aF0.5555555555555556
aF0.2388888888888889
aF0.8111111111111111
aF0.011111111111111112
aF0.027777777777777776
aF0.07777777777777778
aI0
aF0.2722222222222222
aF0.011111111111111112
aF0.38333333333333336
aF0.7277777777777777
aF0.25
aF0.2388888888888889
aF0.18888888888888888
aF0.26666666666666666
aF0.03333333333333333
aF0.05555555555555555
aI0
aF0.016666666666666666
a.