(lp0
F0.45918367346938777
aF0.1377551020408163
aF1.0612244897959184
aF0.05102040816326531
aF0.02040816326530612
aF1.2295918367346939
aF0.5408163265306123
aF0.04081632653061224
aF0.01020408163265306
aI0
aF0.24489795918367346
aF1.8979591836734695
aF0.6275510204081632
aF0.04591836734693878
aI0
aF0.02040816326530612
aF0.03571428571428571
aF1.1989795918367347
aF0.45408163265306123
aF1.0
aF0.01020408163265306
aF0.01020408163265306
aF0.04081632653061224
aI0
aF0.27040816326530615
aF0.02040816326530612
aF0.5459183673469388
aF1.0255102040816326
aF0.1683673469387755
aF0.25510204081632654
aF0.37755102040816324
aF0.20408163265306123
aF0.025510204081632654
aF0.10714285714285714
aI0
aF0.09183673469387756
a.