(lp0
F0.5384615384615384
aF0.21794871794871795
aF1.5
aF0.02564102564102564
aF0.01282051282051282
aF1.6025641025641026
aF1.0384615384615385
aF0.01282051282051282
aF0.01282051282051282
aI0
aF0.1794871794871795
aF2.3974358974358974
aF0.5256410256410257
aF0.05128205128205128
aI0
aI0
aF0.038461538461538464
aF1.1025641025641026
aF0.20512820512820512
aF0.8589743589743589
aF0.038461538461538464
aI0
aF0.1282051282051282
aI0
aF0.32051282051282054
aF0.01282051282051282
aF0.5769230769230769
aF1.3333333333333333
aF0.15384615384615385
aF0.32051282051282054
aF0.2692307692307692
aF0.07692307692307693
aF0.02564102564102564
aF0.08974358974358974
aI0
aF0.038461538461538464
a.