(lp0
F0.3288409703504043
aF0.07547169811320754
aF1.1859838274932615
aF0.029649595687331536
aF0.013477088948787063
aF1.1159029649595686
aF0.692722371967655
aF0.016172506738544475
aF0.018867924528301886
aI0
aF0.16981132075471697
aF2.4016172506738545
aF0.3450134770889488
aF0.0215633423180593
aI0
aI0
aF0.05390835579514825
aF0.6900269541778976
aF0.20485175202156333
aF0.6630727762803235
aF0.01078167115902965
aI0
aF0.07277628032345014
aI0
aF0.2830188679245283
aF0.016172506738544475
aF0.49865229110512127
aF0.692722371967655
aF0.29110512129380056
aF0.33423180592991913
aF0.24258760107816713
aF0.2641509433962264
aF0.03773584905660377
aF0.0673854447439353
aI0
aF0.04043126684636118
a.