(lp0
F0.21073558648111332
aF0.04771371769383698
aF0.7216699801192843
aF0.019880715705765408
aF0.009940357852882704
aF0.7455268389662028
aF0.4671968190854871
aF0.015904572564612324
aF0.003976143141153081
aI0
aF0.16302186878727634
aF1.3817097415506958
aF0.27634194831013914
aF0.02186878727634195
aI0
aF0.005964214711729622
aF0.033797216699801194
aF0.8449304174950298
aF0.15109343936381708
aF0.6083499005964215
aF0.011928429423459244
aF0.0019880715705765406
aF0.0775347912524851
aI0
aF0.19284294234592445
aF0.06560636182902585
aF0.5149105367793241
aF0.7813121272365805
aF0.13518886679920478
aF0.1411530815109344
aF0.2644135188866799
aF0.1312127236580517
aF0.017892644135188866
aF0.04572564612326044
aI0
aF0.05964214711729622
a.