(lp0
F0.47794117647058826
aF0.15441176470588236
aF2.088235294117647
aF0.029411764705882353
aI0
aF1.588235294117647
aF0.9117647058823529
aF0.04411764705882353
aF0.014705882352941176
aI0
aF0.25
aF2.764705882352941
aF0.5294117647058824
aF0.051470588235294115
aI0
aI0
aF0.022058823529411766
aF0.9117647058823529
aF0.11764705882352941
aF0.9338235294117647
aI0
aI0
aF0.125
aI0
aF0.3088235294117647
aI0
aF0.6911764705882353
aF0.9926470588235294
aF0.3235294117647059
aF0.29411764705882354
aF0.3014705882352941
aF0.34558823529411764
aF0.0661764705882353
aF0.07352941176470588
aI0
aF0.08088235294117647
a.