(lp0
F1.015340364333653
aF0.21476510067114093
aF1.8791946308724832
aF0.04410354745925216
aF0.010546500479386385
aF2.0009587727708533
aF1.321188878235858
aF0.04410354745925216
aF0.03355704697986577
aI0
aF0.27325023969319273
aF3.1169702780441035
aF0.9022051773729626
aF0.05560882070949185
aI0
aF0.03451581975071908
aF0.05177372962607862
aF0.9731543624161074
aF0.25599232981783315
aF1.1764141898370086
aF0.03451581975071908
aF0.004793863854266539
aF0.14189837008628955
aF0.0009587727708533077
aF0.4563758389261745
aF0.045062320230105465
aF0.8207094918504314
aF1.24352828379674
aF0.3029721955896453
aF0.4822627037392138
aF0.2483221476510067
aF0.16490891658676893
aF0.061361457334611694
aF0.06040268456375839
aI0
aF0.10162991371045062
a.