(lp0
F1.2293456708526107
aF0.13317911434236615
aF2.0363516192994053
aF0.052544613350958363
aF0.012888301387970919
aF2.3678122934567085
aF1.1986120290812954
aF0.10575016523463318
aF0.02511566424322538
aI0
aF0.3202247191011236
aF3.671844018506279
aF0.7604097818902842
aF0.009583608724388631
aF0.00033046926635822867
aF0.016192994051553205
aF0.11500330469266358
aF1.3212161269001983
aF0.43192333113020487
aF1.3000660938532715
aF0.03271645736946464
aF0.0019828155981493722
aF0.09385327164573695
aF0.00033046926635822867
aF0.456708526107072
aF0.024124256444150696
aF0.841044282881692
aF1.553536021150033
aF0.35095836087243887
aF0.5512227362855254
aF0.25644415069398546
aF0.21480502313284863
aF0.11764705882352941
aF0.06212822207534699
aF0.0013218770654329147
aF0.15697290152015864
a.