(lp0
F0.4245353159851301
aF0.07992565055762081
aF1.1468401486988848
aF0.03531598513011153
aF0.01245353159851301
aF1.3672862453531598
aF0.7669144981412639
aF0.018215613382899627
aF0.007063197026022305
aF0.0013011152416356876
aF0.14144981412639404
aF2.495724907063197
aF0.5009293680297398
aF0.07044609665427509
aI0
aF0.010594795539033457
aF0.09163568773234201
aF1.004275092936803
aF0.370817843866171
aF0.8057620817843866
aF0.013568773234200743
aF0.0022304832713754648
aF0.08754646840148698
aI0
aF0.27063197026022306
aF0.020260223048327138
aF0.5611524163568773
aF1.0323420074349443
aF0.24907063197026022
aF0.29944237918215616
aF0.2782527881040892
aF0.1674721189591078
aF0.04460966542750929
aF0.07825278810408921
aF0.0024163568773234202
aF0.08271375464684015
a.