(lp0
F0.6362972239615946
aF0.09016906700062617
aF1.3364642037152996
aF0.05463368816530995
aF0.02170736798163223
aF2.0375182634105613
aF0.8961072844917554
aF0.040701314965560426
aF0.02358589021081194
aF0.000469630557294928
aF0.47385723231058235
aF2.601753287413901
aF0.5174285117929451
aF0.013514923815487372
aF5.2181173032769774e-05
aF0.03089125443539971
aF0.06366103109997913
aF1.5632957628887498
aF0.5061573784178668
aF1.2605927781256523
aF0.025099144228762263
aF0.008296806512210394
aF0.06851388019202671
aI0
aF0.5366311834690044
aF0.024994781882696722
aF1.0631914005426841
aF1.1343665205593823
aF0.2286057190565644
aF0.5300041744938426
aF0.4169275725318305
aF0.23726779378000418
aF0.09977040283865582
aF0.11443331246086412
aF0.004539762053850971
aF0.1046232519307034
a.