(lp0
F0.7438087105038429
aF0.10589239965841162
aF1.4560204953031597
aF0.032450896669513236
aF0.05123825789923143
aF1.6310845431255336
aF1.703672075149445
aF0.04184457728437233
aF0.05892399658411614
aF0.0008539709649871904
aF0.21093082835183605
aF2.7369769427839454
aF0.6883005977796754
aF0.05209222886421862
aI0
aF0.02391118701964133
aF0.02391118701964133
aF1.1041844577284372
aF0.4457728437233134
aF1.2724167378309137
aF0.035866780529461996
aF0.016225448334756618
aF0.05550811272416738
aI0
aF0.36806148590947907
aF0.013663535439795047
aF0.6712211784799317
aF0.6362083689154568
aF0.1349274124679761
aF0.36464560204953034
aF0.5619128949615713
aF0.47566182749786506
aF0.06063193851409052
aF0.0888129803586678
aI0
aF0.09222886421861656
a.