(lp0
F0.441025641025641
aF0.07762237762237763
aF1.0862470862470863
aF0.028321678321678322
aF0.014335664335664336
aF1.2625874125874126
aF0.7378787878787879
aF0.02296037296037296
aF0.015384615384615385
aI0
aF0.1822843822843823
aF2.131934731934732
aF0.6181818181818182
aF0.008275058275058275
aF0.00011655011655011655
aF0.015384615384615385
aF0.09487179487179487
aF0.8361305361305361
aF0.30652680652680653
aF0.794988344988345
aF0.014102564102564103
aF0.0013986013986013986
aF0.07226107226107226
aF0.00011655011655011655
aF0.3009324009324009
aF0.04230769230769231
aF0.6298368298368299
aF0.8968531468531469
aF0.20372960372960372
aF0.28251748251748254
aF0.2804195804195804
aF0.16386946386946388
aF0.03414918414918415
aF0.05780885780885781
aF0.0015151515151515152
aF0.07867132867132867
a.