(lp0
F1.0889601620526672
aF0.10854152599594868
aF1.6791019581363944
aF0.06262660364618501
aF0.016711681296421338
aF2.572754895340986
aF1.5481093855503039
aF0.08170155300472653
aF0.04726536124240378
aF0.00033760972316002703
aF0.4598244429439568
aF3.485989196488859
aF0.6883862255232951
aF0.018062120189061445
aF0.00016880486158001352
aF0.04929101958136394
aF0.11208642808912897
aF1.7830857528696826
aF0.5817015530047266
aF1.7459486833220796
aF0.056043214044564485
aF0.01350438892640108
aF0.11782579338284943
aI0
aF0.7113436866981769
aF0.047434166103983794
aF1.3057056043214044
aF1.6681296421336935
aF0.424713031735314
aF0.6520931802835922
aF0.40783254557731263
aF0.25708980418636057
aF0.11039837947332883
aF0.12525320729237002
aF0.0038825118163403104
aF0.18028359216745443
a.